ARM GAS  C:\Users\MICHA~1\AppData\Local\Temp\ccShQ95f.s 			page 1


   1              		.cpu cortex-m3
   2              		.eabi_attribute 20, 1	@ Tag_ABI_FP_denormal
   3              		.eabi_attribute 21, 1	@ Tag_ABI_FP_exceptions
   4              		.eabi_attribute 23, 3	@ Tag_ABI_FP_number_model
   5              		.eabi_attribute 24, 1	@ Tag_ABI_align8_needed
   6              		.eabi_attribute 25, 1	@ Tag_ABI_align8_preserved
   7              		.eabi_attribute 26, 1	@ Tag_ABI_enum_size
   8              		.eabi_attribute 30, 6	@ Tag_ABI_optimization_goals
   9              		.eabi_attribute 34, 1	@ Tag_CPU_unaligned_access
  10              		.eabi_attribute 18, 4	@ Tag_ABI_PCS_wchar_t
  11              		.file	"gpio.c"
  12              	@ GNU C89 (bleeding-edge-toolchain) version 6.3.0 (arm-none-eabi)
  13              	@	compiled by GNU C version 6.2.1 20160830, GMP version 6.1.2, MPFR version 3.1.5, MPC version 1.0.
  14              	@ GGC heuristics: --param ggc-min-expand=100 --param ggc-min-heapsize=131072
  15              	@ options passed:  -I . -I Setup -I RtosV611 -I RtosV611/Source
  16              	@ -I RtosV611/Source/include -I RtosV611/Source/portable/GCC/ARM_CM3
  17              	@ -I RtosV611/Source/portable/MemMang -I RtosV611/Common/include
  18              	@ -imultilib armv7-m
  19              	@ -iprefix c:\stm32\arm-none-eabi-gcc-6.3.0-170107\bin\../lib/gcc/arm-none-eabi/6.3.0/
  20              	@ -isysroot c:\stm32\arm-none-eabi-gcc-6.3.0-170107\bin\../arm-none-eabi
  21              	@ -MD out/gpio.d -MF out/gpio.d -MP -MQ out/gpio.o -D__USES_INITFINI__
  22              	@ gpio.c -mcpu=cortex-m3 -mthumb -auxbase-strip out/gpio.o -g -ggdb3 -O0
  23              	@ -Wall -Wstrict-prototypes -Wextra -std=gnu90 -ffunction-sections
  24              	@ -fdata-sections -fverbose-asm
  25              	@ options enabled:  -faggressive-loop-optimizations -fauto-inc-dec
  26              	@ -fchkp-check-incomplete-type -fchkp-check-read -fchkp-check-write
  27              	@ -fchkp-instrument-calls -fchkp-narrow-bounds -fchkp-optimize
  28              	@ -fchkp-store-bounds -fchkp-use-static-bounds
  29              	@ -fchkp-use-static-const-bounds -fchkp-use-wrappers -fcommon
  30              	@ -fdata-sections -fdelete-null-pointer-checks -fdwarf2-cfi-asm
  31              	@ -fearly-inlining -feliminate-unused-debug-types -ffunction-cse
  32              	@ -ffunction-sections -fgcse-lm -fgnu-runtime -fgnu-unique -fident
  33              	@ -finline-atomics -fira-hoist-pressure -fira-share-save-slots
  34              	@ -fira-share-spill-slots -fivopts -fkeep-static-consts
  35              	@ -fleading-underscore -flifetime-dse -flto-odr-type-merging -fmath-errno
  36              	@ -fmerge-debug-strings -fpeephole -fplt -fprefetch-loop-arrays
  37              	@ -freg-struct-return -fsched-critical-path-heuristic
  38              	@ -fsched-dep-count-heuristic -fsched-group-heuristic -fsched-interblock
  39              	@ -fsched-last-insn-heuristic -fsched-rank-heuristic -fsched-spec
  40              	@ -fsched-spec-insn-heuristic -fsched-stalled-insns-dep
  41              	@ -fsemantic-interposition -fshow-column -fsigned-zeros
  42              	@ -fsplit-ivs-in-unroller -fssa-backprop -fstdarg-opt
  43              	@ -fstrict-volatile-bitfields -fsync-libcalls -ftrapping-math -ftree-cselim
  44              	@ -ftree-forwprop -ftree-loop-if-convert -ftree-loop-im -ftree-loop-ivcanon
  45              	@ -ftree-loop-optimize -ftree-parallelize-loops= -ftree-phiprop
  46              	@ -ftree-reassoc -ftree-scev-cprop -funit-at-a-time -fverbose-asm
  47              	@ -fzero-initialized-in-bss -masm-syntax-unified -mfix-cortex-m3-ldrd
  48              	@ -mlittle-endian -mpic-data-is-text-relative -msched-prolog -mthumb
  49              	@ -munaligned-access -mvectorize-with-neon-quad
  50              	
  51              		.text
  52              	.Ltext0:
  53              		.cfi_sections	.debug_frame
  54              		.section	.text.gpio_init,"ax",%progbits
  55              		.align	1
  56              		.global	gpio_init
  57              		.syntax unified
ARM GAS  C:\Users\MICHA~1\AppData\Local\Temp\ccShQ95f.s 			page 2


  58              		.thumb
  59              		.thumb_func
  60              		.fpu softvfp
  61              		.type	gpio_init, %function
  62              	gpio_init:
  63              	.LFB20:
  64              		.file 1 "gpio.c"
   1:gpio.c        **** /*
   2:gpio.c        ****  * gpio.c
   3:gpio.c        ****  *
   4:gpio.c        ****  *  Created on: 14.02.2017
   5:gpio.c        ****  *      Author: Micha³
   6:gpio.c        ****  */
   7:gpio.c        **** 
   8:gpio.c        **** #include <stdint.h>
   9:gpio.c        **** 
  10:gpio.c        **** //#include "Setup/stm32f103xe.h"
  11:gpio.c        **** 
  12:gpio.c        **** 
  13:gpio.c        **** #include "gpio.h"
  14:gpio.c        **** 
  15:gpio.c        **** /*
  16:gpio.c        **** +=============================================================================+
  17:gpio.c        **** | module variables
  18:gpio.c        **** +=============================================================================+
  19:gpio.c        **** */
  20:gpio.c        **** 
  21:gpio.c        **** /*
  22:gpio.c        **** +=============================================================================+
  23:gpio.c        **** | local functions' declarations
  24:gpio.c        **** +=============================================================================+
  25:gpio.c        **** */
  26:gpio.c        **** 
  27:gpio.c        **** /*
  28:gpio.c        **** +=============================================================================+
  29:gpio.c        **** | global functions
  30:gpio.c        **** +=============================================================================+
  31:gpio.c        **** */
  32:gpio.c        **** 
  33:gpio.c        **** /*------------------------------------------------------------------------*//**
  34:gpio.c        **** * \brief GPIO initialization.
  35:gpio.c        **** * \details Enables AFIO, all GPIO ports and sets them to input with pull-downs.
  36:gpio.c        **** *//*-------------------------------------------------------------------------*/
  37:gpio.c        **** 
  38:gpio.c        **** void gpio_init(void)
  39:gpio.c        **** {
  65              		.loc 1 39 0
  66              		.cfi_startproc
  67              		@ args = 0, pretend = 0, frame = 0
  68              		@ frame_needed = 1, uses_anonymous_args = 0
  69              		@ link register save eliminated.
  70 0000 80B4     		push	{r7}	@
  71              		.cfi_def_cfa_offset 4
  72              		.cfi_offset 7, -4
  73 0002 00AF     		add	r7, sp, #0	@,,
  74              		.cfi_def_cfa_register 7
  40:gpio.c        **** 	RCC->APB2ENR = RCC_APB2ENR_IOPAEN | RCC_APB2ENR_IOPBEN | RCC_APB2ENR_IOPCEN |
ARM GAS  C:\Users\MICHA~1\AppData\Local\Temp\ccShQ95f.s 			page 3


  75              		.loc 1 40 0
  76 0004 1E4B     		ldr	r3, .L2	@ _1,
  77 0006 7D22     		movs	r2, #125	@ tmp126,
  78 0008 9A61     		str	r2, [r3, #24]	@ tmp126, _1->APB2ENR
  41:gpio.c        **** 			RCC_APB2ENR_IOPDEN | RCC_APB2ENR_IOPEEN | RCC_APB2ENR_AFIOEN;	// enable all GPIOs and AFIO
  42:gpio.c        **** 
  43:gpio.c        **** 	// set all ports to input with pull-down
  44:gpio.c        **** 	GPIOA->CRL = 0x88888888;
  79              		.loc 1 44 0
  80 000a 1E4B     		ldr	r3, .L2+4	@ _4,
  81 000c 4FF08832 		mov	r2, #-2004318072	@ tmp127,
  82 0010 1A60     		str	r2, [r3]	@ tmp127, _4->CRL
  45:gpio.c        **** 	GPIOA->CRH = 0x88888888;
  83              		.loc 1 45 0
  84 0012 1C4B     		ldr	r3, .L2+4	@ _6,
  85 0014 4FF08832 		mov	r2, #-2004318072	@ tmp128,
  86 0018 5A60     		str	r2, [r3, #4]	@ tmp128, _6->CRH
  46:gpio.c        **** 	GPIOA->ODR = 0;
  87              		.loc 1 46 0
  88 001a 1A4B     		ldr	r3, .L2+4	@ _8,
  89 001c 0022     		movs	r2, #0	@ tmp129,
  90 001e DA60     		str	r2, [r3, #12]	@ tmp129, _8->ODR
  47:gpio.c        **** 	GPIOB->CRL = 0x88888888;
  91              		.loc 1 47 0
  92 0020 194B     		ldr	r3, .L2+8	@ _10,
  93 0022 4FF08832 		mov	r2, #-2004318072	@ tmp130,
  94 0026 1A60     		str	r2, [r3]	@ tmp130, _10->CRL
  48:gpio.c        **** 	GPIOB->CRH = 0x88888888;
  95              		.loc 1 48 0
  96 0028 174B     		ldr	r3, .L2+8	@ _12,
  97 002a 4FF08832 		mov	r2, #-2004318072	@ tmp131,
  98 002e 5A60     		str	r2, [r3, #4]	@ tmp131, _12->CRH
  49:gpio.c        **** 	GPIOB->ODR = 0;
  99              		.loc 1 49 0
 100 0030 154B     		ldr	r3, .L2+8	@ _14,
 101 0032 0022     		movs	r2, #0	@ tmp132,
 102 0034 DA60     		str	r2, [r3, #12]	@ tmp132, _14->ODR
  50:gpio.c        **** 	GPIOC->CRL = 0x88888888;
 103              		.loc 1 50 0
 104 0036 154B     		ldr	r3, .L2+12	@ _16,
 105 0038 4FF08832 		mov	r2, #-2004318072	@ tmp133,
 106 003c 1A60     		str	r2, [r3]	@ tmp133, _16->CRL
  51:gpio.c        **** 	GPIOC->CRH = 0x88888888;
 107              		.loc 1 51 0
 108 003e 134B     		ldr	r3, .L2+12	@ _18,
 109 0040 4FF08832 		mov	r2, #-2004318072	@ tmp134,
 110 0044 5A60     		str	r2, [r3, #4]	@ tmp134, _18->CRH
  52:gpio.c        **** 	GPIOC->ODR = 0;
 111              		.loc 1 52 0
 112 0046 114B     		ldr	r3, .L2+12	@ _20,
 113 0048 0022     		movs	r2, #0	@ tmp135,
 114 004a DA60     		str	r2, [r3, #12]	@ tmp135, _20->ODR
  53:gpio.c        **** 	GPIOD->CRL = 0x88888888;
 115              		.loc 1 53 0
 116 004c 104B     		ldr	r3, .L2+16	@ _22,
 117 004e 4FF08832 		mov	r2, #-2004318072	@ tmp136,
 118 0052 1A60     		str	r2, [r3]	@ tmp136, _22->CRL
ARM GAS  C:\Users\MICHA~1\AppData\Local\Temp\ccShQ95f.s 			page 4


  54:gpio.c        **** 	GPIOD->CRH = 0x88888888;
 119              		.loc 1 54 0
 120 0054 0E4B     		ldr	r3, .L2+16	@ _24,
 121 0056 4FF08832 		mov	r2, #-2004318072	@ tmp137,
 122 005a 5A60     		str	r2, [r3, #4]	@ tmp137, _24->CRH
  55:gpio.c        **** 	GPIOD->ODR = 0;
 123              		.loc 1 55 0
 124 005c 0C4B     		ldr	r3, .L2+16	@ _26,
 125 005e 0022     		movs	r2, #0	@ tmp138,
 126 0060 DA60     		str	r2, [r3, #12]	@ tmp138, _26->ODR
  56:gpio.c        **** 	GPIOE->CRL = 0x88888888;
 127              		.loc 1 56 0
 128 0062 0C4B     		ldr	r3, .L2+20	@ _28,
 129 0064 4FF08832 		mov	r2, #-2004318072	@ tmp139,
 130 0068 1A60     		str	r2, [r3]	@ tmp139, _28->CRL
  57:gpio.c        **** 	GPIOE->CRH = 0x88888888;
 131              		.loc 1 57 0
 132 006a 0A4B     		ldr	r3, .L2+20	@ _30,
 133 006c 4FF08832 		mov	r2, #-2004318072	@ tmp140,
 134 0070 5A60     		str	r2, [r3, #4]	@ tmp140, _30->CRH
  58:gpio.c        **** 	GPIOE->ODR = 0;
 135              		.loc 1 58 0
 136 0072 084B     		ldr	r3, .L2+20	@ _32,
 137 0074 0022     		movs	r2, #0	@ tmp141,
 138 0076 DA60     		str	r2, [r3, #12]	@ tmp141, _32->ODR
  59:gpio.c        **** }
 139              		.loc 1 59 0
 140 0078 00BF     		nop
 141 007a BD46     		mov	sp, r7	@,
 142              		.cfi_def_cfa_register 13
 143              		@ sp needed	@
 144 007c 80BC     		pop	{r7}	@
 145              		.cfi_restore 7
 146              		.cfi_def_cfa_offset 0
 147 007e 7047     		bx	lr	@
 148              	.L3:
 149              		.align	2
 150              	.L2:
 151 0080 00100240 		.word	1073876992
 152 0084 00080140 		.word	1073809408
 153 0088 000C0140 		.word	1073810432
 154 008c 00100140 		.word	1073811456
 155 0090 00140140 		.word	1073812480
 156 0094 00180140 		.word	1073813504
 157              		.cfi_endproc
 158              	.LFE20:
 159              		.size	gpio_init, .-gpio_init
 160              		.section	.text.gpio_pin_cfg,"ax",%progbits
 161              		.align	1
 162              		.global	gpio_pin_cfg
 163              		.syntax unified
 164              		.thumb
 165              		.thumb_func
 166              		.fpu softvfp
 167              		.type	gpio_pin_cfg, %function
 168              	gpio_pin_cfg:
 169              	.LFB21:
ARM GAS  C:\Users\MICHA~1\AppData\Local\Temp\ccShQ95f.s 			page 5


  60:gpio.c        **** 
  61:gpio.c        **** /*------------------------------------------------------------------------*//**
  62:gpio.c        **** * \brief Configures pin.
  63:gpio.c        **** * \details Configures one pin in one port.
  64:gpio.c        **** *
  65:gpio.c        **** * \param [in] port_ptr points to the configuration structure of desired port
  66:gpio.c        **** * \param [in] pin selects one pin, [0,15]
  67:gpio.c        **** * \param [in] mode_cnf_value is a value of MODE and CNF which will be set for
  68:gpio.c        **** * selected pin, {GPIO_CRx_MODE_CNF_IN_ANALOG_value,
  69:gpio.c        **** * GPIO_CRx_MODE_CNF_IN_FLOATING_value, GPIO_CRx_MODE_CNF_IN_PULL_U_D_value,
  70:gpio.c        **** * GPIO_CRx_MODE_CNF_OUT_PP_2M_value, GPIO_CRx_MODE_CNF_OUT_PP_10M_value,
  71:gpio.c        **** * GPIO_CRx_MODE_CNF_OUT_PP_50M_value, GPIO_CRx_MODE_CNF_OUT_OD_2M_value,
  72:gpio.c        **** * GPIO_CRx_MODE_CNF_OUT_OD_10M_value, GPIO_CRx_MODE_CNF_OUT_OD_50M_value,
  73:gpio.c        **** * GPIO_CRx_MODE_CNF_ALT_PP_2M_value, GPIO_CRx_MODE_CNF_ALT_PP_10M_value,
  74:gpio.c        **** * GPIO_CRx_MODE_CNF_ALT_PP_50M_value, GPIO_CRx_MODE_CNF_ALT_OD_2M_value,
  75:gpio.c        **** * GPIO_CRx_MODE_CNF_ALT_OD_10M_value, GPIO_CRx_MODE_CNF_ALT_OD_50M_value} or
  76:gpio.c        **** * use m_GPIO_MODE_CNF_value(mode, cnf) macro
  77:gpio.c        **** *//*-------------------------------------------------------------------------*/
  78:gpio.c        **** 
  79:gpio.c        **** void gpio_pin_cfg(GPIO_TypeDef *port_ptr, uint32_t pin, uint32_t mode_cnf_value)
  80:gpio.c        **** {
 170              		.loc 1 80 0
 171              		.cfi_startproc
 172              		@ args = 0, pretend = 0, frame = 24
 173              		@ frame_needed = 1, uses_anonymous_args = 0
 174              		@ link register save eliminated.
 175 0000 80B4     		push	{r7}	@
 176              		.cfi_def_cfa_offset 4
 177              		.cfi_offset 7, -4
 178 0002 87B0     		sub	sp, sp, #28	@,,
 179              		.cfi_def_cfa_offset 32
 180 0004 00AF     		add	r7, sp, #0	@,,
 181              		.cfi_def_cfa_register 7
 182 0006 F860     		str	r0, [r7, #12]	@ port_ptr, port_ptr
 183 0008 B960     		str	r1, [r7, #8]	@ pin, pin
 184 000a 7A60     		str	r2, [r7, #4]	@ mode_cnf_value, mode_cnf_value
  81:gpio.c        **** 	volatile uint32_t *cr_ptr;
  82:gpio.c        **** 	uint32_t cr_value;
  83:gpio.c        **** 
  84:gpio.c        **** 	cr_ptr = &port_ptr->CRL;				// configuration of pins [0,7] is in CRL
 185              		.loc 1 84 0
 186 000c FB68     		ldr	r3, [r7, #12]	@ tmp116, port_ptr
 187 000e 7B61     		str	r3, [r7, #20]	@ tmp116, cr_ptr
  85:gpio.c        **** 
  86:gpio.c        **** 	if (pin >= 8)							// is pin in [8; 15]?
 188              		.loc 1 86 0
 189 0010 BB68     		ldr	r3, [r7, #8]	@ tmp117, pin
 190 0012 072B     		cmp	r3, #7	@ tmp117,
 191 0014 05D9     		bls	.L5	@,
  87:gpio.c        **** 	{										// configuration of pins [8,15] is in CRH
  88:gpio.c        **** 		cr_ptr++;							// advance to next struct element CRL -> CRH
 192              		.loc 1 88 0
 193 0016 7B69     		ldr	r3, [r7, #20]	@ tmp119, cr_ptr
 194 0018 0433     		adds	r3, r3, #4	@ tmp118, tmp119,
 195 001a 7B61     		str	r3, [r7, #20]	@ tmp118, cr_ptr
  89:gpio.c        **** 		pin -= 8;							// crop the pin number
 196              		.loc 1 89 0
ARM GAS  C:\Users\MICHA~1\AppData\Local\Temp\ccShQ95f.s 			page 6


 197 001c BB68     		ldr	r3, [r7, #8]	@ tmp121, pin
 198 001e 083B     		subs	r3, r3, #8	@ tmp120, tmp121,
 199 0020 BB60     		str	r3, [r7, #8]	@ tmp120, pin
 200              	.L5:
  90:gpio.c        **** 	}
  91:gpio.c        **** 
  92:gpio.c        **** 	cr_value = *cr_ptr;						// localize the CRL / CRH value
 201              		.loc 1 92 0
 202 0022 7B69     		ldr	r3, [r7, #20]	@ tmp122, cr_ptr
 203 0024 1B68     		ldr	r3, [r3]	@ tmp123, *cr_ptr_2
 204 0026 3B61     		str	r3, [r7, #16]	@ tmp123, cr_value
  93:gpio.c        **** 
  94:gpio.c        **** 	cr_value &= ~(GPIO_CRx_MODE_CNF_mask << (pin * 4));	// clear the MODE and CNF fields (now that pin
 205              		.loc 1 94 0
 206 0028 BB68     		ldr	r3, [r7, #8]	@ tmp124, pin
 207 002a 9B00     		lsls	r3, r3, #2	@ _10, tmp124,
 208 002c 0F22     		movs	r2, #15	@ tmp125,
 209 002e 02FA03F3 		lsl	r3, r2, r3	@ _11, tmp125, _10
 210 0032 DB43     		mvns	r3, r3	@ _12, _11
 211 0034 1A46     		mov	r2, r3	@ _13, _12
 212 0036 3B69     		ldr	r3, [r7, #16]	@ tmp127, cr_value
 213 0038 1340     		ands	r3, r3, r2	@, tmp126, tmp127, _13
 214 003a 3B61     		str	r3, [r7, #16]	@ tmp126, cr_value
  95:gpio.c        **** 	cr_value |= (mode_cnf_value << (pin * 4));	// save new MODE and CNF value for desired pin
 215              		.loc 1 95 0
 216 003c BB68     		ldr	r3, [r7, #8]	@ tmp128, pin
 217 003e 9B00     		lsls	r3, r3, #2	@ _15, tmp128,
 218 0040 7A68     		ldr	r2, [r7, #4]	@ tmp129, mode_cnf_value
 219 0042 02FA03F3 		lsl	r3, r2, r3	@ _17, tmp129, _15
 220 0046 3A69     		ldr	r2, [r7, #16]	@ tmp131, cr_value
 221 0048 1343     		orrs	r3, r3, r2	@, tmp130, _17, tmp131
 222 004a 3B61     		str	r3, [r7, #16]	@ tmp130, cr_value
  96:gpio.c        **** 
  97:gpio.c        **** 	*cr_ptr = cr_value;						// save localized value to CRL / CRL
 223              		.loc 1 97 0
 224 004c 7B69     		ldr	r3, [r7, #20]	@ tmp132, cr_ptr
 225 004e 3A69     		ldr	r2, [r7, #16]	@ tmp133, cr_value
 226 0050 1A60     		str	r2, [r3]	@ tmp133, *cr_ptr_2
  98:gpio.c        **** }
 227              		.loc 1 98 0
 228 0052 00BF     		nop
 229 0054 1C37     		adds	r7, r7, #28	@,,
 230              		.cfi_def_cfa_offset 4
 231 0056 BD46     		mov	sp, r7	@,
 232              		.cfi_def_cfa_register 13
 233              		@ sp needed	@
 234 0058 80BC     		pop	{r7}	@
 235              		.cfi_restore 7
 236              		.cfi_def_cfa_offset 0
 237 005a 7047     		bx	lr	@
 238              		.cfi_endproc
 239              	.LFE21:
 240              		.size	gpio_pin_cfg, .-gpio_pin_cfg
 241              		.text
 242              	.Letext0:
 243              		.file 2 "c:\\stm32\\arm-none-eabi-gcc-6.3.0-170107\\arm-none-eabi\\include\\machine\\_default_type
 244              		.file 3 "c:\\stm32\\arm-none-eabi-gcc-6.3.0-170107\\arm-none-eabi\\include\\sys\\_stdint.h"
ARM GAS  C:\Users\MICHA~1\AppData\Local\Temp\ccShQ95f.s 			page 7


 245              		.file 4 "Setup/stm32f10x.h"
 246              		.file 5 "Setup/core_cm3.h"