ARM GAS  C:\Users\MICHA~1\AppData\Local\Temp\ccXsxiX7.s 			page 1


   1              		.cpu cortex-m3
   2              		.eabi_attribute 20, 1	@ Tag_ABI_FP_denormal
   3              		.eabi_attribute 21, 1	@ Tag_ABI_FP_exceptions
   4              		.eabi_attribute 23, 3	@ Tag_ABI_FP_number_model
   5              		.eabi_attribute 24, 1	@ Tag_ABI_align8_needed
   6              		.eabi_attribute 25, 1	@ Tag_ABI_align8_preserved
   7              		.eabi_attribute 26, 1	@ Tag_ABI_enum_size
   8              		.eabi_attribute 30, 6	@ Tag_ABI_optimization_goals
   9              		.eabi_attribute 34, 1	@ Tag_CPU_unaligned_access
  10              		.eabi_attribute 18, 4	@ Tag_ABI_PCS_wchar_t
  11              		.file	"heap_2.c"
  12              	@ GNU C89 (bleeding-edge-toolchain) version 6.3.0 (arm-none-eabi)
  13              	@	compiled by GNU C version 6.2.1 20160830, GMP version 6.1.2, MPFR version 3.1.5, MPC version 1.0.
  14              	@ GGC heuristics: --param ggc-min-expand=100 --param ggc-min-heapsize=131072
  15              	@ options passed:  -I . -I Setup -I RtosV611 -I RtosV611/Source
  16              	@ -I RtosV611/Source/include -I RtosV611/Source/portable/GCC/ARM_CM3
  17              	@ -I RtosV611/Source/portable/MemMang -I RtosV611/Common/include
  18              	@ -imultilib armv7-m
  19              	@ -iprefix c:\stm32\arm-none-eabi-gcc-6.3.0-170107\bin\../lib/gcc/arm-none-eabi/6.3.0/
  20              	@ -isysroot c:\stm32\arm-none-eabi-gcc-6.3.0-170107\bin\../arm-none-eabi
  21              	@ -MD out/heap_2.d -MF out/heap_2.d -MP -MQ out/heap_2.o
  22              	@ -D__USES_INITFINI__ RtosV611/Source/portable/MemMang/heap_2.c
  23              	@ -mcpu=cortex-m3 -mthumb -auxbase-strip out/heap_2.o -g -ggdb3 -O0 -Wall
  24              	@ -Wstrict-prototypes -Wextra -std=gnu90 -ffunction-sections
  25              	@ -fdata-sections -fverbose-asm
  26              	@ options enabled:  -faggressive-loop-optimizations -fauto-inc-dec
  27              	@ -fchkp-check-incomplete-type -fchkp-check-read -fchkp-check-write
  28              	@ -fchkp-instrument-calls -fchkp-narrow-bounds -fchkp-optimize
  29              	@ -fchkp-store-bounds -fchkp-use-static-bounds
  30              	@ -fchkp-use-static-const-bounds -fchkp-use-wrappers -fcommon
  31              	@ -fdata-sections -fdelete-null-pointer-checks -fdwarf2-cfi-asm
  32              	@ -fearly-inlining -feliminate-unused-debug-types -ffunction-cse
  33              	@ -ffunction-sections -fgcse-lm -fgnu-runtime -fgnu-unique -fident
  34              	@ -finline-atomics -fira-hoist-pressure -fira-share-save-slots
  35              	@ -fira-share-spill-slots -fivopts -fkeep-static-consts
  36              	@ -fleading-underscore -flifetime-dse -flto-odr-type-merging -fmath-errno
  37              	@ -fmerge-debug-strings -fpeephole -fplt -fprefetch-loop-arrays
  38              	@ -freg-struct-return -fsched-critical-path-heuristic
  39              	@ -fsched-dep-count-heuristic -fsched-group-heuristic -fsched-interblock
  40              	@ -fsched-last-insn-heuristic -fsched-rank-heuristic -fsched-spec
  41              	@ -fsched-spec-insn-heuristic -fsched-stalled-insns-dep
  42              	@ -fsemantic-interposition -fshow-column -fsigned-zeros
  43              	@ -fsplit-ivs-in-unroller -fssa-backprop -fstdarg-opt
  44              	@ -fstrict-volatile-bitfields -fsync-libcalls -ftrapping-math -ftree-cselim
  45              	@ -ftree-forwprop -ftree-loop-if-convert -ftree-loop-im -ftree-loop-ivcanon
  46              	@ -ftree-loop-optimize -ftree-parallelize-loops= -ftree-phiprop
  47              	@ -ftree-reassoc -ftree-scev-cprop -funit-at-a-time -fverbose-asm
  48              	@ -fzero-initialized-in-bss -masm-syntax-unified -mfix-cortex-m3-ldrd
  49              	@ -mlittle-endian -mpic-data-is-text-relative -msched-prolog -mthumb
  50              	@ -munaligned-access -mvectorize-with-neon-quad
  51              	
  52              		.text
  53              	.Ltext0:
  54              		.cfi_sections	.debug_frame
  55              		.section	.bss.xHeap,"aw",%nobits
  56              		.align	3
  57              		.type	xHeap, %object
ARM GAS  C:\Users\MICHA~1\AppData\Local\Temp\ccXsxiX7.s 			page 2


  58              		.size	xHeap, 10240
  59              	xHeap:
  60 0000 00000000 		.space	10240
  60      00000000 
  60      00000000 
  60      00000000 
  60      00000000 
  61              		.section	.rodata.heapSTRUCT_SIZE,"a",%progbits
  62              		.align	1
  63              		.type	heapSTRUCT_SIZE, %object
  64              		.size	heapSTRUCT_SIZE, 2
  65              	heapSTRUCT_SIZE:
  66 0000 1000     		.short	16
  67              		.section	.bss.xStart,"aw",%nobits
  68              		.align	2
  69              		.type	xStart, %object
  70              		.size	xStart, 8
  71              	xStart:
  72 0000 00000000 		.space	8
  72      00000000 
  73              		.section	.bss.xEnd,"aw",%nobits
  74              		.align	2
  75              		.type	xEnd, %object
  76              		.size	xEnd, 8
  77              	xEnd:
  78 0000 00000000 		.space	8
  78      00000000 
  79              		.section	.data.xFreeBytesRemaining,"aw",%progbits
  80              		.align	2
  81              		.type	xFreeBytesRemaining, %object
  82              		.size	xFreeBytesRemaining, 4
  83              	xFreeBytesRemaining:
  84 0000 00280000 		.word	10240
  85              		.section	.text.pvPortMalloc,"ax",%progbits
  86              		.align	1
  87              		.global	pvPortMalloc
  88              		.syntax unified
  89              		.thumb
  90              		.thumb_func
  91              		.fpu softvfp
  92              		.type	pvPortMalloc, %function
  93              	pvPortMalloc:
  94              	.LFB0:
  95              		.file 1 "RtosV611/Source/portable/MemMang/heap_2.c"
   1:RtosV611/Source/portable/MemMang/heap_2.c **** /*
   2:RtosV611/Source/portable/MemMang/heap_2.c ****     FreeRTOS V6.1.1 - Copyright (C) 2011 Real Time Engineers Ltd.
   3:RtosV611/Source/portable/MemMang/heap_2.c **** 
   4:RtosV611/Source/portable/MemMang/heap_2.c ****     ***************************************************************************
   5:RtosV611/Source/portable/MemMang/heap_2.c ****     *                                                                         *
   6:RtosV611/Source/portable/MemMang/heap_2.c ****     * If you are:                                                             *
   7:RtosV611/Source/portable/MemMang/heap_2.c ****     *                                                                         *
   8:RtosV611/Source/portable/MemMang/heap_2.c ****     *    + New to FreeRTOS,                                                   *
   9:RtosV611/Source/portable/MemMang/heap_2.c ****     *    + Wanting to learn FreeRTOS or multitasking in general quickly       *
  10:RtosV611/Source/portable/MemMang/heap_2.c ****     *    + Looking for basic training,                                        *
  11:RtosV611/Source/portable/MemMang/heap_2.c ****     *    + Wanting to improve your FreeRTOS skills and productivity           *
  12:RtosV611/Source/portable/MemMang/heap_2.c ****     *                                                                         *
  13:RtosV611/Source/portable/MemMang/heap_2.c ****     * then take a look at the FreeRTOS books - available as PDF or paperback  *
ARM GAS  C:\Users\MICHA~1\AppData\Local\Temp\ccXsxiX7.s 			page 3


  14:RtosV611/Source/portable/MemMang/heap_2.c ****     *                                                                         *
  15:RtosV611/Source/portable/MemMang/heap_2.c ****     *        "Using the FreeRTOS Real Time Kernel - a Practical Guide"        *
  16:RtosV611/Source/portable/MemMang/heap_2.c ****     *                  http://www.FreeRTOS.org/Documentation                  *
  17:RtosV611/Source/portable/MemMang/heap_2.c ****     *                                                                         *
  18:RtosV611/Source/portable/MemMang/heap_2.c ****     * A pdf reference manual is also available.  Both are usually delivered   *
  19:RtosV611/Source/portable/MemMang/heap_2.c ****     * to your inbox within 20 minutes to two hours when purchased between 8am *
  20:RtosV611/Source/portable/MemMang/heap_2.c ****     * and 8pm GMT (although please allow up to 24 hours in case of            *
  21:RtosV611/Source/portable/MemMang/heap_2.c ****     * exceptional circumstances).  Thank you for your support!                *
  22:RtosV611/Source/portable/MemMang/heap_2.c ****     *                                                                         *
  23:RtosV611/Source/portable/MemMang/heap_2.c ****     ***************************************************************************
  24:RtosV611/Source/portable/MemMang/heap_2.c **** 
  25:RtosV611/Source/portable/MemMang/heap_2.c ****     This file is part of the FreeRTOS distribution.
  26:RtosV611/Source/portable/MemMang/heap_2.c **** 
  27:RtosV611/Source/portable/MemMang/heap_2.c ****     FreeRTOS is free software; you can redistribute it and/or modify it under
  28:RtosV611/Source/portable/MemMang/heap_2.c ****     the terms of the GNU General Public License (version 2) as published by the
  29:RtosV611/Source/portable/MemMang/heap_2.c ****     Free Software Foundation AND MODIFIED BY the FreeRTOS exception.
  30:RtosV611/Source/portable/MemMang/heap_2.c ****     ***NOTE*** The exception to the GPL is included to allow you to distribute
  31:RtosV611/Source/portable/MemMang/heap_2.c ****     a combined work that includes FreeRTOS without being obliged to provide the
  32:RtosV611/Source/portable/MemMang/heap_2.c ****     source code for proprietary components outside of the FreeRTOS kernel.
  33:RtosV611/Source/portable/MemMang/heap_2.c ****     FreeRTOS is distributed in the hope that it will be useful, but WITHOUT
  34:RtosV611/Source/portable/MemMang/heap_2.c ****     ANY WARRANTY; without even the implied warranty of MERCHANTABILITY or
  35:RtosV611/Source/portable/MemMang/heap_2.c ****     FITNESS FOR A PARTICULAR PURPOSE.  See the GNU General Public License for
  36:RtosV611/Source/portable/MemMang/heap_2.c ****     more details. You should have received a copy of the GNU General Public 
  37:RtosV611/Source/portable/MemMang/heap_2.c ****     License and the FreeRTOS license exception along with FreeRTOS; if not it 
  38:RtosV611/Source/portable/MemMang/heap_2.c ****     can be viewed here: http://www.freertos.org/a00114.html and also obtained 
  39:RtosV611/Source/portable/MemMang/heap_2.c ****     by writing to Richard Barry, contact details for whom are available on the
  40:RtosV611/Source/portable/MemMang/heap_2.c ****     FreeRTOS WEB site.
  41:RtosV611/Source/portable/MemMang/heap_2.c **** 
  42:RtosV611/Source/portable/MemMang/heap_2.c ****     1 tab == 4 spaces!
  43:RtosV611/Source/portable/MemMang/heap_2.c **** 
  44:RtosV611/Source/portable/MemMang/heap_2.c ****     http://www.FreeRTOS.org - Documentation, latest information, license and
  45:RtosV611/Source/portable/MemMang/heap_2.c ****     contact details.
  46:RtosV611/Source/portable/MemMang/heap_2.c **** 
  47:RtosV611/Source/portable/MemMang/heap_2.c ****     http://www.SafeRTOS.com - A version that is certified for use in safety
  48:RtosV611/Source/portable/MemMang/heap_2.c ****     critical systems.
  49:RtosV611/Source/portable/MemMang/heap_2.c **** 
  50:RtosV611/Source/portable/MemMang/heap_2.c ****     http://www.OpenRTOS.com - Commercial support, development, porting,
  51:RtosV611/Source/portable/MemMang/heap_2.c ****     licensing and training services.
  52:RtosV611/Source/portable/MemMang/heap_2.c **** */
  53:RtosV611/Source/portable/MemMang/heap_2.c **** 
  54:RtosV611/Source/portable/MemMang/heap_2.c **** /*
  55:RtosV611/Source/portable/MemMang/heap_2.c ****  * A sample implementation of pvPortMalloc() and vPortFree() that permits
  56:RtosV611/Source/portable/MemMang/heap_2.c ****  * allocated blocks to be freed, but does not combine adjacent free blocks
  57:RtosV611/Source/portable/MemMang/heap_2.c ****  * into a single larger block.
  58:RtosV611/Source/portable/MemMang/heap_2.c ****  *
  59:RtosV611/Source/portable/MemMang/heap_2.c ****  * See heap_1.c and heap_3.c for alternative implementations, and the memory
  60:RtosV611/Source/portable/MemMang/heap_2.c ****  * management pages of http://www.FreeRTOS.org for more information.
  61:RtosV611/Source/portable/MemMang/heap_2.c ****  */
  62:RtosV611/Source/portable/MemMang/heap_2.c **** #include <stdlib.h>
  63:RtosV611/Source/portable/MemMang/heap_2.c **** 
  64:RtosV611/Source/portable/MemMang/heap_2.c **** /* Defining MPU_WRAPPERS_INCLUDED_FROM_API_FILE prevents task.h from redefining
  65:RtosV611/Source/portable/MemMang/heap_2.c **** all the API functions to use the MPU wrappers.  That should only be done when
  66:RtosV611/Source/portable/MemMang/heap_2.c **** task.h is included from an application file. */
  67:RtosV611/Source/portable/MemMang/heap_2.c **** #define MPU_WRAPPERS_INCLUDED_FROM_API_FILE
  68:RtosV611/Source/portable/MemMang/heap_2.c **** 
  69:RtosV611/Source/portable/MemMang/heap_2.c **** #include "FreeRTOS.h"
  70:RtosV611/Source/portable/MemMang/heap_2.c **** #include "task.h"
ARM GAS  C:\Users\MICHA~1\AppData\Local\Temp\ccXsxiX7.s 			page 4


  71:RtosV611/Source/portable/MemMang/heap_2.c **** 
  72:RtosV611/Source/portable/MemMang/heap_2.c **** #undef MPU_WRAPPERS_INCLUDED_FROM_API_FILE
  73:RtosV611/Source/portable/MemMang/heap_2.c **** 
  74:RtosV611/Source/portable/MemMang/heap_2.c **** /* Allocate the memory for the heap.  The struct is used to force byte
  75:RtosV611/Source/portable/MemMang/heap_2.c **** alignment without using any non-portable code. */
  76:RtosV611/Source/portable/MemMang/heap_2.c **** static union xRTOS_HEAP
  77:RtosV611/Source/portable/MemMang/heap_2.c **** {
  78:RtosV611/Source/portable/MemMang/heap_2.c **** 	#if portBYTE_ALIGNMENT == 8
  79:RtosV611/Source/portable/MemMang/heap_2.c **** 		volatile portDOUBLE dDummy;
  80:RtosV611/Source/portable/MemMang/heap_2.c **** 	#else
  81:RtosV611/Source/portable/MemMang/heap_2.c **** 		volatile unsigned long ulDummy;
  82:RtosV611/Source/portable/MemMang/heap_2.c **** 	#endif
  83:RtosV611/Source/portable/MemMang/heap_2.c **** 	unsigned char ucHeap[ configTOTAL_HEAP_SIZE ];
  84:RtosV611/Source/portable/MemMang/heap_2.c **** } xHeap;
  85:RtosV611/Source/portable/MemMang/heap_2.c **** 
  86:RtosV611/Source/portable/MemMang/heap_2.c **** /* Define the linked list structure.  This is used to link free blocks in order
  87:RtosV611/Source/portable/MemMang/heap_2.c **** of their size. */
  88:RtosV611/Source/portable/MemMang/heap_2.c **** typedef struct A_BLOCK_LINK
  89:RtosV611/Source/portable/MemMang/heap_2.c **** {
  90:RtosV611/Source/portable/MemMang/heap_2.c **** 	struct A_BLOCK_LINK *pxNextFreeBlock;	/*<< The next free block in the list. */
  91:RtosV611/Source/portable/MemMang/heap_2.c **** 	size_t xBlockSize;						/*<< The size of the free block. */
  92:RtosV611/Source/portable/MemMang/heap_2.c **** } xBlockLink;
  93:RtosV611/Source/portable/MemMang/heap_2.c **** 
  94:RtosV611/Source/portable/MemMang/heap_2.c **** 
  95:RtosV611/Source/portable/MemMang/heap_2.c **** static const unsigned short  heapSTRUCT_SIZE	= ( sizeof( xBlockLink ) + portBYTE_ALIGNMENT - ( size
  96:RtosV611/Source/portable/MemMang/heap_2.c **** #define heapMINIMUM_BLOCK_SIZE	( ( size_t ) ( heapSTRUCT_SIZE * 2 ) )
  97:RtosV611/Source/portable/MemMang/heap_2.c **** 
  98:RtosV611/Source/portable/MemMang/heap_2.c **** /* Create a couple of list links to mark the start and end of the list. */
  99:RtosV611/Source/portable/MemMang/heap_2.c **** static xBlockLink xStart, xEnd;
 100:RtosV611/Source/portable/MemMang/heap_2.c **** 
 101:RtosV611/Source/portable/MemMang/heap_2.c **** /* Keeps track of the number of free bytes remaining, but says nothing about
 102:RtosV611/Source/portable/MemMang/heap_2.c **** fragmentation. */
 103:RtosV611/Source/portable/MemMang/heap_2.c **** static size_t xFreeBytesRemaining = configTOTAL_HEAP_SIZE;
 104:RtosV611/Source/portable/MemMang/heap_2.c **** 
 105:RtosV611/Source/portable/MemMang/heap_2.c **** /* STATIC FUNCTIONS ARE DEFINED AS MACROS TO MINIMIZE THE FUNCTION CALL DEPTH. */
 106:RtosV611/Source/portable/MemMang/heap_2.c **** 
 107:RtosV611/Source/portable/MemMang/heap_2.c **** /*
 108:RtosV611/Source/portable/MemMang/heap_2.c ****  * Insert a block into the list of free blocks - which is ordered by size of
 109:RtosV611/Source/portable/MemMang/heap_2.c ****  * the block.  Small blocks at the start of the list and large blocks at the end
 110:RtosV611/Source/portable/MemMang/heap_2.c ****  * of the list.
 111:RtosV611/Source/portable/MemMang/heap_2.c ****  */
 112:RtosV611/Source/portable/MemMang/heap_2.c **** #define prvInsertBlockIntoFreeList( pxBlockToInsert )								\
 113:RtosV611/Source/portable/MemMang/heap_2.c **** {																					\
 114:RtosV611/Source/portable/MemMang/heap_2.c **** xBlockLink *pxIterator;																\
 115:RtosV611/Source/portable/MemMang/heap_2.c **** size_t xBlockSize;																	\
 116:RtosV611/Source/portable/MemMang/heap_2.c **** 																					\
 117:RtosV611/Source/portable/MemMang/heap_2.c **** 	xBlockSize = pxBlockToInsert->xBlockSize;										\
 118:RtosV611/Source/portable/MemMang/heap_2.c **** 																					\
 119:RtosV611/Source/portable/MemMang/heap_2.c **** 	/* Iterate through the list until a block is found that has a larger size */	\
 120:RtosV611/Source/portable/MemMang/heap_2.c **** 	/* than the block we are inserting. */											\
 121:RtosV611/Source/portable/MemMang/heap_2.c **** 	for( pxIterator = &xStart; pxIterator->pxNextFreeBlock->xBlockSize < xBlockSize; pxIterator = pxIt
 122:RtosV611/Source/portable/MemMang/heap_2.c **** 	{																				\
 123:RtosV611/Source/portable/MemMang/heap_2.c **** 		/* There is nothing to do here - just iterate to the correct position. */	\
 124:RtosV611/Source/portable/MemMang/heap_2.c **** 	}																				\
 125:RtosV611/Source/portable/MemMang/heap_2.c **** 																					\
 126:RtosV611/Source/portable/MemMang/heap_2.c **** 	/* Update the list to include the block being inserted in the correct */		\
 127:RtosV611/Source/portable/MemMang/heap_2.c **** 	/* position. */																	\
ARM GAS  C:\Users\MICHA~1\AppData\Local\Temp\ccXsxiX7.s 			page 5


 128:RtosV611/Source/portable/MemMang/heap_2.c **** 	pxBlockToInsert->pxNextFreeBlock = pxIterator->pxNextFreeBlock;					\
 129:RtosV611/Source/portable/MemMang/heap_2.c **** 	pxIterator->pxNextFreeBlock = pxBlockToInsert;									\
 130:RtosV611/Source/portable/MemMang/heap_2.c **** }
 131:RtosV611/Source/portable/MemMang/heap_2.c **** /*-----------------------------------------------------------*/
 132:RtosV611/Source/portable/MemMang/heap_2.c **** 
 133:RtosV611/Source/portable/MemMang/heap_2.c **** #define prvHeapInit()																\
 134:RtosV611/Source/portable/MemMang/heap_2.c **** {																					\
 135:RtosV611/Source/portable/MemMang/heap_2.c **** xBlockLink *pxFirstFreeBlock;														\
 136:RtosV611/Source/portable/MemMang/heap_2.c **** 																					\
 137:RtosV611/Source/portable/MemMang/heap_2.c **** 	/* xStart is used to hold a pointer to the first item in the list of free */	\
 138:RtosV611/Source/portable/MemMang/heap_2.c **** 	/* blocks.  The void cast is used to prevent compiler warnings. */				\
 139:RtosV611/Source/portable/MemMang/heap_2.c **** 	xStart.pxNextFreeBlock = ( void * ) xHeap.ucHeap;								\
 140:RtosV611/Source/portable/MemMang/heap_2.c **** 	xStart.xBlockSize = ( size_t ) 0;												\
 141:RtosV611/Source/portable/MemMang/heap_2.c **** 																					\
 142:RtosV611/Source/portable/MemMang/heap_2.c **** 	/* xEnd is used to mark the end of the list of free blocks. */					\
 143:RtosV611/Source/portable/MemMang/heap_2.c **** 	xEnd.xBlockSize = configTOTAL_HEAP_SIZE;										\
 144:RtosV611/Source/portable/MemMang/heap_2.c **** 	xEnd.pxNextFreeBlock = NULL;													\
 145:RtosV611/Source/portable/MemMang/heap_2.c **** 																					\
 146:RtosV611/Source/portable/MemMang/heap_2.c **** 	/* To start with there is a single free block that is sized to take up the		\
 147:RtosV611/Source/portable/MemMang/heap_2.c **** 	entire heap space. */															\
 148:RtosV611/Source/portable/MemMang/heap_2.c **** 	pxFirstFreeBlock = ( void * ) xHeap.ucHeap;										\
 149:RtosV611/Source/portable/MemMang/heap_2.c **** 	pxFirstFreeBlock->xBlockSize = configTOTAL_HEAP_SIZE;							\
 150:RtosV611/Source/portable/MemMang/heap_2.c **** 	pxFirstFreeBlock->pxNextFreeBlock = &xEnd;										\
 151:RtosV611/Source/portable/MemMang/heap_2.c **** }
 152:RtosV611/Source/portable/MemMang/heap_2.c **** /*-----------------------------------------------------------*/
 153:RtosV611/Source/portable/MemMang/heap_2.c **** 
 154:RtosV611/Source/portable/MemMang/heap_2.c **** void *pvPortMalloc( size_t xWantedSize )
 155:RtosV611/Source/portable/MemMang/heap_2.c **** {
  96              		.loc 1 155 0
  97              		.cfi_startproc
  98              		@ args = 0, pretend = 0, frame = 40
  99              		@ frame_needed = 1, uses_anonymous_args = 0
 100 0000 80B5     		push	{r7, lr}	@
 101              		.cfi_def_cfa_offset 8
 102              		.cfi_offset 7, -8
 103              		.cfi_offset 14, -4
 104 0002 8AB0     		sub	sp, sp, #40	@,,
 105              		.cfi_def_cfa_offset 48
 106 0004 00AF     		add	r7, sp, #0	@,,
 107              		.cfi_def_cfa_register 7
 108 0006 7860     		str	r0, [r7, #4]	@ xWantedSize, xWantedSize
 156:RtosV611/Source/portable/MemMang/heap_2.c **** xBlockLink *pxBlock, *pxPreviousBlock, *pxNewBlockLink;
 157:RtosV611/Source/portable/MemMang/heap_2.c **** static portBASE_TYPE xHeapHasBeenInitialised = pdFALSE;
 158:RtosV611/Source/portable/MemMang/heap_2.c **** void *pvReturn = NULL;
 109              		.loc 1 158 0
 110 0008 0023     		movs	r3, #0	@ tmp137,
 111 000a FB61     		str	r3, [r7, #28]	@ tmp137, pvReturn
 159:RtosV611/Source/portable/MemMang/heap_2.c **** 
 160:RtosV611/Source/portable/MemMang/heap_2.c **** 	vTaskSuspendAll();
 112              		.loc 1 160 0
 113 000c FFF7FEFF 		bl	vTaskSuspendAll	@
 161:RtosV611/Source/portable/MemMang/heap_2.c **** 	{
 162:RtosV611/Source/portable/MemMang/heap_2.c **** 		/* If this is the first call to malloc then the heap will require
 163:RtosV611/Source/portable/MemMang/heap_2.c **** 		initialisation to setup the list of free blocks. */
 164:RtosV611/Source/portable/MemMang/heap_2.c **** 		if( xHeapHasBeenInitialised == pdFALSE )
 114              		.loc 1 164 0
 115 0010 474B     		ldr	r3, .L12	@ tmp138,
ARM GAS  C:\Users\MICHA~1\AppData\Local\Temp\ccXsxiX7.s 			page 6


 116 0012 1B68     		ldr	r3, [r3]	@ xHeapHasBeenInitialised.0_12, xHeapHasBeenInitialised
 117 0014 002B     		cmp	r3, #0	@ xHeapHasBeenInitialised.0_12,
 118 0016 18D1     		bne	.L2	@,
 119              	.LBB2:
 165:RtosV611/Source/portable/MemMang/heap_2.c **** 		{
 166:RtosV611/Source/portable/MemMang/heap_2.c **** 			prvHeapInit();
 120              		.loc 1 166 0
 121 0018 464B     		ldr	r3, .L12+4	@ tmp139,
 122 001a 474A     		ldr	r2, .L12+8	@ tmp140,
 123 001c 1A60     		str	r2, [r3]	@ tmp140, xStart.pxNextFreeBlock
 124 001e 454B     		ldr	r3, .L12+4	@ tmp141,
 125 0020 0022     		movs	r2, #0	@ tmp142,
 126 0022 5A60     		str	r2, [r3, #4]	@ tmp142, xStart.xBlockSize
 127 0024 454B     		ldr	r3, .L12+12	@ tmp143,
 128 0026 4FF42052 		mov	r2, #10240	@ tmp144,
 129 002a 5A60     		str	r2, [r3, #4]	@ tmp144, xEnd.xBlockSize
 130 002c 434B     		ldr	r3, .L12+12	@ tmp145,
 131 002e 0022     		movs	r2, #0	@ tmp146,
 132 0030 1A60     		str	r2, [r3]	@ tmp146, xEnd.pxNextFreeBlock
 133 0032 414B     		ldr	r3, .L12+8	@ tmp147,
 134 0034 7B61     		str	r3, [r7, #20]	@ tmp147, pxFirstFreeBlock
 135 0036 7B69     		ldr	r3, [r7, #20]	@ tmp148, pxFirstFreeBlock
 136 0038 4FF42052 		mov	r2, #10240	@ tmp149,
 137 003c 5A60     		str	r2, [r3, #4]	@ tmp149, pxFirstFreeBlock_17->xBlockSize
 138 003e 7B69     		ldr	r3, [r7, #20]	@ tmp150, pxFirstFreeBlock
 139 0040 3E4A     		ldr	r2, .L12+12	@ tmp151,
 140 0042 1A60     		str	r2, [r3]	@ tmp151, pxFirstFreeBlock_17->pxNextFreeBlock
 141              	.LBE2:
 167:RtosV611/Source/portable/MemMang/heap_2.c **** 			xHeapHasBeenInitialised = pdTRUE;
 142              		.loc 1 167 0
 143 0044 3A4B     		ldr	r3, .L12	@ tmp152,
 144 0046 0122     		movs	r2, #1	@ tmp153,
 145 0048 1A60     		str	r2, [r3]	@ tmp153, xHeapHasBeenInitialised
 146              	.L2:
 168:RtosV611/Source/portable/MemMang/heap_2.c **** 		}
 169:RtosV611/Source/portable/MemMang/heap_2.c **** 
 170:RtosV611/Source/portable/MemMang/heap_2.c **** 		/* The wanted size is increased so it can contain a xBlockLink
 171:RtosV611/Source/portable/MemMang/heap_2.c **** 		structure in addition to the requested amount of bytes. */
 172:RtosV611/Source/portable/MemMang/heap_2.c **** 		if( xWantedSize > 0 )
 147              		.loc 1 172 0
 148 004a 7B68     		ldr	r3, [r7, #4]	@ tmp154, xWantedSize
 149 004c 002B     		cmp	r3, #0	@ tmp154,
 150 004e 0ED0     		beq	.L3	@,
 173:RtosV611/Source/portable/MemMang/heap_2.c **** 		{
 174:RtosV611/Source/portable/MemMang/heap_2.c **** 			xWantedSize += heapSTRUCT_SIZE;
 151              		.loc 1 174 0
 152 0050 1023     		movs	r3, #16	@ heapSTRUCT_SIZE.1_22,
 153 0052 1A46     		mov	r2, r3	@ _23, heapSTRUCT_SIZE.1_22
 154 0054 7B68     		ldr	r3, [r7, #4]	@ tmp156, xWantedSize
 155 0056 1344     		add	r3, r3, r2	@ tmp155, _23
 156 0058 7B60     		str	r3, [r7, #4]	@ tmp155, xWantedSize
 175:RtosV611/Source/portable/MemMang/heap_2.c **** 
 176:RtosV611/Source/portable/MemMang/heap_2.c **** 			/* Ensure that blocks are always aligned to the required number of bytes. */
 177:RtosV611/Source/portable/MemMang/heap_2.c **** 			if( xWantedSize & portBYTE_ALIGNMENT_MASK )
 157              		.loc 1 177 0
 158 005a 7B68     		ldr	r3, [r7, #4]	@ tmp157, xWantedSize
 159 005c 03F00703 		and	r3, r3, #7	@ _25, tmp157,
ARM GAS  C:\Users\MICHA~1\AppData\Local\Temp\ccXsxiX7.s 			page 7


 160 0060 002B     		cmp	r3, #0	@ _25,
 161 0062 04D0     		beq	.L3	@,
 178:RtosV611/Source/portable/MemMang/heap_2.c **** 			{
 179:RtosV611/Source/portable/MemMang/heap_2.c **** 				/* Byte alignment required. */
 180:RtosV611/Source/portable/MemMang/heap_2.c **** 				xWantedSize += ( portBYTE_ALIGNMENT - ( xWantedSize & portBYTE_ALIGNMENT_MASK ) );
 162              		.loc 1 180 0
 163 0064 7B68     		ldr	r3, [r7, #4]	@ tmp158, xWantedSize
 164 0066 23F00703 		bic	r3, r3, #7	@ _26, tmp158,
 165 006a 0833     		adds	r3, r3, #8	@ tmp159, _26,
 166 006c 7B60     		str	r3, [r7, #4]	@ tmp159, xWantedSize
 167              	.L3:
 181:RtosV611/Source/portable/MemMang/heap_2.c **** 			}
 182:RtosV611/Source/portable/MemMang/heap_2.c **** 		}
 183:RtosV611/Source/portable/MemMang/heap_2.c **** 
 184:RtosV611/Source/portable/MemMang/heap_2.c **** 		if( ( xWantedSize > 0 ) && ( xWantedSize < configTOTAL_HEAP_SIZE ) )
 168              		.loc 1 184 0
 169 006e 7B68     		ldr	r3, [r7, #4]	@ tmp160, xWantedSize
 170 0070 002B     		cmp	r3, #0	@ tmp160,
 171 0072 56D0     		beq	.L4	@,
 172              		.loc 1 184 0 is_stmt 0 discriminator 1
 173 0074 7B68     		ldr	r3, [r7, #4]	@ tmp161, xWantedSize
 174 0076 B3F5205F 		cmp	r3, #10240	@ tmp161,
 175 007a 52D2     		bcs	.L4	@,
 185:RtosV611/Source/portable/MemMang/heap_2.c **** 		{
 186:RtosV611/Source/portable/MemMang/heap_2.c **** 			/* Blocks are stored in byte order - traverse the list from the start
 187:RtosV611/Source/portable/MemMang/heap_2.c **** 			(smallest) block until one of adequate size is found. */
 188:RtosV611/Source/portable/MemMang/heap_2.c **** 			pxPreviousBlock = &xStart;
 176              		.loc 1 188 0 is_stmt 1
 177 007c 2D4B     		ldr	r3, .L12+4	@ tmp162,
 178 007e 3B62     		str	r3, [r7, #32]	@ tmp162, pxPreviousBlock
 189:RtosV611/Source/portable/MemMang/heap_2.c **** 			pxBlock = xStart.pxNextFreeBlock;
 179              		.loc 1 189 0
 180 0080 2C4B     		ldr	r3, .L12+4	@ tmp163,
 181 0082 1B68     		ldr	r3, [r3]	@ tmp164, xStart.pxNextFreeBlock
 182 0084 7B62     		str	r3, [r7, #36]	@ tmp164, pxBlock
 190:RtosV611/Source/portable/MemMang/heap_2.c **** 			while( ( pxBlock->xBlockSize < xWantedSize ) && ( pxBlock->pxNextFreeBlock ) )
 183              		.loc 1 190 0
 184 0086 04E0     		b	.L5	@
 185              	.L7:
 191:RtosV611/Source/portable/MemMang/heap_2.c **** 			{
 192:RtosV611/Source/portable/MemMang/heap_2.c **** 				pxPreviousBlock = pxBlock;
 186              		.loc 1 192 0
 187 0088 7B6A     		ldr	r3, [r7, #36]	@ tmp165, pxBlock
 188 008a 3B62     		str	r3, [r7, #32]	@ tmp165, pxPreviousBlock
 193:RtosV611/Source/portable/MemMang/heap_2.c **** 				pxBlock = pxBlock->pxNextFreeBlock;
 189              		.loc 1 193 0
 190 008c 7B6A     		ldr	r3, [r7, #36]	@ tmp166, pxBlock
 191 008e 1B68     		ldr	r3, [r3]	@ tmp167, pxBlock_2->pxNextFreeBlock
 192 0090 7B62     		str	r3, [r7, #36]	@ tmp167, pxBlock
 193              	.L5:
 190:RtosV611/Source/portable/MemMang/heap_2.c **** 			while( ( pxBlock->xBlockSize < xWantedSize ) && ( pxBlock->pxNextFreeBlock ) )
 194              		.loc 1 190 0
 195 0092 7B6A     		ldr	r3, [r7, #36]	@ tmp168, pxBlock
 196 0094 5A68     		ldr	r2, [r3, #4]	@ _30, pxBlock_2->xBlockSize
 197 0096 7B68     		ldr	r3, [r7, #4]	@ tmp169, xWantedSize
 198 0098 9A42     		cmp	r2, r3	@ _30, tmp169
 199 009a 03D2     		bcs	.L6	@,
ARM GAS  C:\Users\MICHA~1\AppData\Local\Temp\ccXsxiX7.s 			page 8


 190:RtosV611/Source/portable/MemMang/heap_2.c **** 			while( ( pxBlock->xBlockSize < xWantedSize ) && ( pxBlock->pxNextFreeBlock ) )
 200              		.loc 1 190 0 is_stmt 0 discriminator 1
 201 009c 7B6A     		ldr	r3, [r7, #36]	@ tmp170, pxBlock
 202 009e 1B68     		ldr	r3, [r3]	@ _31, pxBlock_2->pxNextFreeBlock
 203 00a0 002B     		cmp	r3, #0	@ _31,
 204 00a2 F1D1     		bne	.L7	@,
 205              	.L6:
 194:RtosV611/Source/portable/MemMang/heap_2.c **** 			}
 195:RtosV611/Source/portable/MemMang/heap_2.c **** 
 196:RtosV611/Source/portable/MemMang/heap_2.c **** 			/* If we found the end marker then a block of adequate size was not found. */
 197:RtosV611/Source/portable/MemMang/heap_2.c **** 			if( pxBlock != &xEnd )
 206              		.loc 1 197 0 is_stmt 1
 207 00a4 7B6A     		ldr	r3, [r7, #36]	@ tmp171, pxBlock
 208 00a6 254A     		ldr	r2, .L12+12	@ tmp172,
 209 00a8 9342     		cmp	r3, r2	@ tmp171, tmp172
 210 00aa 3AD0     		beq	.L4	@,
 198:RtosV611/Source/portable/MemMang/heap_2.c **** 			{
 199:RtosV611/Source/portable/MemMang/heap_2.c **** 				/* Return the memory space - jumping over the xBlockLink structure
 200:RtosV611/Source/portable/MemMang/heap_2.c **** 				at its start. */
 201:RtosV611/Source/portable/MemMang/heap_2.c **** 				pvReturn = ( void * ) ( ( ( unsigned char * ) pxPreviousBlock->pxNextFreeBlock ) + heapSTRUCT_S
 211              		.loc 1 201 0
 212 00ac 3B6A     		ldr	r3, [r7, #32]	@ tmp173, pxPreviousBlock
 213 00ae 1B68     		ldr	r3, [r3]	@ _34, pxPreviousBlock_3->pxNextFreeBlock
 214 00b0 1022     		movs	r2, #16	@ heapSTRUCT_SIZE.2_35,
 215 00b2 1344     		add	r3, r3, r2	@ tmp174, _36
 216 00b4 FB61     		str	r3, [r7, #28]	@ tmp174, pvReturn
 202:RtosV611/Source/portable/MemMang/heap_2.c **** 
 203:RtosV611/Source/portable/MemMang/heap_2.c **** 				/* This block is being returned for use so must be taken our of the
 204:RtosV611/Source/portable/MemMang/heap_2.c **** 				list of free blocks. */
 205:RtosV611/Source/portable/MemMang/heap_2.c **** 				pxPreviousBlock->pxNextFreeBlock = pxBlock->pxNextFreeBlock;
 217              		.loc 1 205 0
 218 00b6 7B6A     		ldr	r3, [r7, #36]	@ tmp175, pxBlock
 219 00b8 1A68     		ldr	r2, [r3]	@ _38, pxBlock_2->pxNextFreeBlock
 220 00ba 3B6A     		ldr	r3, [r7, #32]	@ tmp176, pxPreviousBlock
 221 00bc 1A60     		str	r2, [r3]	@ _38, pxPreviousBlock_3->pxNextFreeBlock
 206:RtosV611/Source/portable/MemMang/heap_2.c **** 
 207:RtosV611/Source/portable/MemMang/heap_2.c **** 				/* If the block is larger than required it can be split into two. */
 208:RtosV611/Source/portable/MemMang/heap_2.c **** 				if( ( pxBlock->xBlockSize - xWantedSize ) > heapMINIMUM_BLOCK_SIZE )
 222              		.loc 1 208 0
 223 00be 7B6A     		ldr	r3, [r7, #36]	@ tmp177, pxBlock
 224 00c0 5A68     		ldr	r2, [r3, #4]	@ _40, pxBlock_2->xBlockSize
 225 00c2 7B68     		ldr	r3, [r7, #4]	@ tmp178, xWantedSize
 226 00c4 D31A     		subs	r3, r2, r3	@ _41, _40, tmp178
 227 00c6 1022     		movs	r2, #16	@ heapSTRUCT_SIZE.3_42,
 228 00c8 5200     		lsls	r2, r2, #1	@ _44, _43,
 229 00ca 9342     		cmp	r3, r2	@ _41, _45
 230 00cc 22D9     		bls	.L8	@,
 209:RtosV611/Source/portable/MemMang/heap_2.c **** 				{
 210:RtosV611/Source/portable/MemMang/heap_2.c **** 					/* This block is to be split into two.  Create a new block
 211:RtosV611/Source/portable/MemMang/heap_2.c **** 					following the number of bytes requested. The void cast is
 212:RtosV611/Source/portable/MemMang/heap_2.c **** 					used to prevent byte alignment warnings from the compiler. */
 213:RtosV611/Source/portable/MemMang/heap_2.c **** 					pxNewBlockLink = ( void * ) ( ( ( unsigned char * ) pxBlock ) + xWantedSize );
 231              		.loc 1 213 0
 232 00ce 7A6A     		ldr	r2, [r7, #36]	@ tmp180, pxBlock
 233 00d0 7B68     		ldr	r3, [r7, #4]	@ tmp181, xWantedSize
 234 00d2 1344     		add	r3, r3, r2	@ tmp179, tmp180
 235 00d4 3B61     		str	r3, [r7, #16]	@ tmp179, pxNewBlockLink
ARM GAS  C:\Users\MICHA~1\AppData\Local\Temp\ccXsxiX7.s 			page 9


 214:RtosV611/Source/portable/MemMang/heap_2.c **** 
 215:RtosV611/Source/portable/MemMang/heap_2.c **** 					/* Calculate the sizes of two blocks split from the single
 216:RtosV611/Source/portable/MemMang/heap_2.c **** 					block. */
 217:RtosV611/Source/portable/MemMang/heap_2.c **** 					pxNewBlockLink->xBlockSize = pxBlock->xBlockSize - xWantedSize;
 236              		.loc 1 217 0
 237 00d6 7B6A     		ldr	r3, [r7, #36]	@ tmp182, pxBlock
 238 00d8 5A68     		ldr	r2, [r3, #4]	@ _47, pxBlock_2->xBlockSize
 239 00da 7B68     		ldr	r3, [r7, #4]	@ tmp183, xWantedSize
 240 00dc D21A     		subs	r2, r2, r3	@ _48, _47, tmp183
 241 00de 3B69     		ldr	r3, [r7, #16]	@ tmp184, pxNewBlockLink
 242 00e0 5A60     		str	r2, [r3, #4]	@ _48, pxNewBlockLink_46->xBlockSize
 218:RtosV611/Source/portable/MemMang/heap_2.c **** 					pxBlock->xBlockSize = xWantedSize;
 243              		.loc 1 218 0
 244 00e2 7B6A     		ldr	r3, [r7, #36]	@ tmp185, pxBlock
 245 00e4 7A68     		ldr	r2, [r7, #4]	@ tmp186, xWantedSize
 246 00e6 5A60     		str	r2, [r3, #4]	@ tmp186, pxBlock_2->xBlockSize
 247              	.LBB3:
 219:RtosV611/Source/portable/MemMang/heap_2.c **** 
 220:RtosV611/Source/portable/MemMang/heap_2.c **** 					/* Insert the new block into the list of free blocks. */
 221:RtosV611/Source/portable/MemMang/heap_2.c **** 					prvInsertBlockIntoFreeList( ( pxNewBlockLink ) );
 248              		.loc 1 221 0
 249 00e8 3B69     		ldr	r3, [r7, #16]	@ tmp187, pxNewBlockLink
 250 00ea 5B68     		ldr	r3, [r3, #4]	@ tmp188, pxNewBlockLink_46->xBlockSize
 251 00ec FB60     		str	r3, [r7, #12]	@ tmp188, xBlockSize
 252 00ee 114B     		ldr	r3, .L12+4	@ tmp189,
 253 00f0 BB61     		str	r3, [r7, #24]	@ tmp189, pxIterator
 254 00f2 02E0     		b	.L9	@
 255              	.L10:
 256              		.loc 1 221 0 is_stmt 0 discriminator 3
 257 00f4 BB69     		ldr	r3, [r7, #24]	@ tmp190, pxIterator
 258 00f6 1B68     		ldr	r3, [r3]	@ tmp191, pxIterator_5->pxNextFreeBlock
 259 00f8 BB61     		str	r3, [r7, #24]	@ tmp191, pxIterator
 260              	.L9:
 261              		.loc 1 221 0 discriminator 1
 262 00fa BB69     		ldr	r3, [r7, #24]	@ tmp192, pxIterator
 263 00fc 1B68     		ldr	r3, [r3]	@ _53, pxIterator_5->pxNextFreeBlock
 264 00fe 5A68     		ldr	r2, [r3, #4]	@ _54, _53->xBlockSize
 265 0100 FB68     		ldr	r3, [r7, #12]	@ tmp193, xBlockSize
 266 0102 9A42     		cmp	r2, r3	@ _54, tmp193
 267 0104 F6D3     		bcc	.L10	@,
 268              		.loc 1 221 0 discriminator 4
 269 0106 BB69     		ldr	r3, [r7, #24]	@ tmp194, pxIterator
 270 0108 1A68     		ldr	r2, [r3]	@ _56, pxIterator_5->pxNextFreeBlock
 271 010a 3B69     		ldr	r3, [r7, #16]	@ tmp195, pxNewBlockLink
 272 010c 1A60     		str	r2, [r3]	@ _56, pxNewBlockLink_46->pxNextFreeBlock
 273 010e BB69     		ldr	r3, [r7, #24]	@ tmp196, pxIterator
 274 0110 3A69     		ldr	r2, [r7, #16]	@ tmp197, pxNewBlockLink
 275 0112 1A60     		str	r2, [r3]	@ tmp197, pxIterator_5->pxNextFreeBlock
 276              	.L8:
 277              	.LBE3:
 222:RtosV611/Source/portable/MemMang/heap_2.c **** 				}
 223:RtosV611/Source/portable/MemMang/heap_2.c **** 				
 224:RtosV611/Source/portable/MemMang/heap_2.c **** 				xFreeBytesRemaining -= pxBlock->xBlockSize;
 278              		.loc 1 224 0 is_stmt 1
 279 0114 0A4B     		ldr	r3, .L12+16	@ tmp198,
 280 0116 1A68     		ldr	r2, [r3]	@ xFreeBytesRemaining.4_59, xFreeBytesRemaining
 281 0118 7B6A     		ldr	r3, [r7, #36]	@ tmp199, pxBlock
ARM GAS  C:\Users\MICHA~1\AppData\Local\Temp\ccXsxiX7.s 			page 10


 282 011a 5B68     		ldr	r3, [r3, #4]	@ _60, pxBlock_2->xBlockSize
 283 011c D31A     		subs	r3, r2, r3	@ _61, xFreeBytesRemaining.4_59, _60
 284 011e 084A     		ldr	r2, .L12+16	@ tmp200,
 285 0120 1360     		str	r3, [r2]	@ _61, xFreeBytesRemaining
 286              	.L4:
 225:RtosV611/Source/portable/MemMang/heap_2.c **** 			}
 226:RtosV611/Source/portable/MemMang/heap_2.c **** 		}
 227:RtosV611/Source/portable/MemMang/heap_2.c **** 	}
 228:RtosV611/Source/portable/MemMang/heap_2.c **** 	xTaskResumeAll();
 287              		.loc 1 228 0
 288 0122 FFF7FEFF 		bl	xTaskResumeAll	@
 229:RtosV611/Source/portable/MemMang/heap_2.c **** 
 230:RtosV611/Source/portable/MemMang/heap_2.c **** 	#if( configUSE_MALLOC_FAILED_HOOK == 1 )
 231:RtosV611/Source/portable/MemMang/heap_2.c **** 	{
 232:RtosV611/Source/portable/MemMang/heap_2.c **** 		if( pvReturn == NULL )
 233:RtosV611/Source/portable/MemMang/heap_2.c **** 		{
 234:RtosV611/Source/portable/MemMang/heap_2.c **** 			extern void vApplicationMallocFailedHook( void );
 235:RtosV611/Source/portable/MemMang/heap_2.c **** 			vApplicationMallocFailedHook();
 236:RtosV611/Source/portable/MemMang/heap_2.c **** 		}
 237:RtosV611/Source/portable/MemMang/heap_2.c **** 	}
 238:RtosV611/Source/portable/MemMang/heap_2.c **** 	#endif
 239:RtosV611/Source/portable/MemMang/heap_2.c **** 
 240:RtosV611/Source/portable/MemMang/heap_2.c **** 	return pvReturn;
 289              		.loc 1 240 0
 290 0126 FB69     		ldr	r3, [r7, #28]	@ _64, pvReturn
 241:RtosV611/Source/portable/MemMang/heap_2.c **** }
 291              		.loc 1 241 0
 292 0128 1846     		mov	r0, r3	@, <retval>
 293 012a 2837     		adds	r7, r7, #40	@,,
 294              		.cfi_def_cfa_offset 8
 295 012c BD46     		mov	sp, r7	@,
 296              		.cfi_def_cfa_register 13
 297              		@ sp needed	@
 298 012e 80BD     		pop	{r7, pc}	@
 299              	.L13:
 300              		.align	2
 301              	.L12:
 302 0130 00000000 		.word	xHeapHasBeenInitialised.4878
 303 0134 00000000 		.word	xStart
 304 0138 00000000 		.word	xHeap
 305 013c 00000000 		.word	xEnd
 306 0140 00000000 		.word	xFreeBytesRemaining
 307              		.cfi_endproc
 308              	.LFE0:
 309              		.size	pvPortMalloc, .-pvPortMalloc
 310              		.section	.text.vPortFree,"ax",%progbits
 311              		.align	1
 312              		.global	vPortFree
 313              		.syntax unified
 314              		.thumb
 315              		.thumb_func
 316              		.fpu softvfp
 317              		.type	vPortFree, %function
 318              	vPortFree:
 319              	.LFB1:
 242:RtosV611/Source/portable/MemMang/heap_2.c **** /*-----------------------------------------------------------*/
 243:RtosV611/Source/portable/MemMang/heap_2.c **** 
ARM GAS  C:\Users\MICHA~1\AppData\Local\Temp\ccXsxiX7.s 			page 11


 244:RtosV611/Source/portable/MemMang/heap_2.c **** void vPortFree( void *pv )
 245:RtosV611/Source/portable/MemMang/heap_2.c **** {
 320              		.loc 1 245 0
 321              		.cfi_startproc
 322              		@ args = 0, pretend = 0, frame = 24
 323              		@ frame_needed = 1, uses_anonymous_args = 0
 324 0000 80B5     		push	{r7, lr}	@
 325              		.cfi_def_cfa_offset 8
 326              		.cfi_offset 7, -8
 327              		.cfi_offset 14, -4
 328 0002 86B0     		sub	sp, sp, #24	@,,
 329              		.cfi_def_cfa_offset 32
 330 0004 00AF     		add	r7, sp, #0	@,,
 331              		.cfi_def_cfa_register 7
 332 0006 7860     		str	r0, [r7, #4]	@ pv, pv
 246:RtosV611/Source/portable/MemMang/heap_2.c **** unsigned char *puc = ( unsigned char * ) pv;
 333              		.loc 1 246 0
 334 0008 7B68     		ldr	r3, [r7, #4]	@ tmp119, pv
 335 000a 3B61     		str	r3, [r7, #16]	@ tmp119, puc
 247:RtosV611/Source/portable/MemMang/heap_2.c **** xBlockLink *pxLink;
 248:RtosV611/Source/portable/MemMang/heap_2.c **** 
 249:RtosV611/Source/portable/MemMang/heap_2.c **** 	if( pv )
 336              		.loc 1 249 0
 337 000c 7B68     		ldr	r3, [r7, #4]	@ tmp120, pv
 338 000e 002B     		cmp	r3, #0	@ tmp120,
 339 0010 27D0     		beq	.L18	@,
 250:RtosV611/Source/portable/MemMang/heap_2.c **** 	{
 251:RtosV611/Source/portable/MemMang/heap_2.c **** 		/* The memory being freed will have an xBlockLink structure immediately
 252:RtosV611/Source/portable/MemMang/heap_2.c **** 		before it. */
 253:RtosV611/Source/portable/MemMang/heap_2.c **** 		puc -= heapSTRUCT_SIZE;
 340              		.loc 1 253 0
 341 0012 1023     		movs	r3, #16	@ heapSTRUCT_SIZE.5_6,
 342 0014 5B42     		negs	r3, r3	@ _8, _7
 343 0016 3A69     		ldr	r2, [r7, #16]	@ tmp122, puc
 344 0018 1344     		add	r3, r3, r2	@ tmp121, tmp122
 345 001a 3B61     		str	r3, [r7, #16]	@ tmp121, puc
 254:RtosV611/Source/portable/MemMang/heap_2.c **** 
 255:RtosV611/Source/portable/MemMang/heap_2.c **** 		/* This casting is to keep the compiler from issuing warnings. */
 256:RtosV611/Source/portable/MemMang/heap_2.c **** 		pxLink = ( void * ) puc;
 346              		.loc 1 256 0
 347 001c 3B69     		ldr	r3, [r7, #16]	@ tmp123, puc
 348 001e FB60     		str	r3, [r7, #12]	@ tmp123, pxLink
 257:RtosV611/Source/portable/MemMang/heap_2.c **** 
 258:RtosV611/Source/portable/MemMang/heap_2.c **** 		vTaskSuspendAll();
 349              		.loc 1 258 0
 350 0020 FFF7FEFF 		bl	vTaskSuspendAll	@
 351              	.LBB4:
 259:RtosV611/Source/portable/MemMang/heap_2.c **** 		{
 260:RtosV611/Source/portable/MemMang/heap_2.c **** 			/* Add this block to the list of free blocks. */
 261:RtosV611/Source/portable/MemMang/heap_2.c **** 			prvInsertBlockIntoFreeList( ( ( xBlockLink * ) pxLink ) );
 352              		.loc 1 261 0
 353 0024 FB68     		ldr	r3, [r7, #12]	@ tmp124, pxLink
 354 0026 5B68     		ldr	r3, [r3, #4]	@ tmp125, pxLink_10->xBlockSize
 355 0028 BB60     		str	r3, [r7, #8]	@ tmp125, xBlockSize
 356 002a 104B     		ldr	r3, .L19	@ tmp126,
 357 002c 7B61     		str	r3, [r7, #20]	@ tmp126, pxIterator
 358 002e 02E0     		b	.L16	@
ARM GAS  C:\Users\MICHA~1\AppData\Local\Temp\ccXsxiX7.s 			page 12


 359              	.L17:
 360              		.loc 1 261 0 is_stmt 0 discriminator 3
 361 0030 7B69     		ldr	r3, [r7, #20]	@ tmp127, pxIterator
 362 0032 1B68     		ldr	r3, [r3]	@ tmp128, pxIterator_1->pxNextFreeBlock
 363 0034 7B61     		str	r3, [r7, #20]	@ tmp128, pxIterator
 364              	.L16:
 365              		.loc 1 261 0 discriminator 1
 366 0036 7B69     		ldr	r3, [r7, #20]	@ tmp129, pxIterator
 367 0038 1B68     		ldr	r3, [r3]	@ _14, pxIterator_1->pxNextFreeBlock
 368 003a 5A68     		ldr	r2, [r3, #4]	@ _15, _14->xBlockSize
 369 003c BB68     		ldr	r3, [r7, #8]	@ tmp130, xBlockSize
 370 003e 9A42     		cmp	r2, r3	@ _15, tmp130
 371 0040 F6D3     		bcc	.L17	@,
 372              		.loc 1 261 0 discriminator 4
 373 0042 7B69     		ldr	r3, [r7, #20]	@ tmp131, pxIterator
 374 0044 1A68     		ldr	r2, [r3]	@ _17, pxIterator_1->pxNextFreeBlock
 375 0046 FB68     		ldr	r3, [r7, #12]	@ tmp132, pxLink
 376 0048 1A60     		str	r2, [r3]	@ _17, pxLink_10->pxNextFreeBlock
 377 004a 7B69     		ldr	r3, [r7, #20]	@ tmp133, pxIterator
 378 004c FA68     		ldr	r2, [r7, #12]	@ tmp134, pxLink
 379 004e 1A60     		str	r2, [r3]	@ tmp134, pxIterator_1->pxNextFreeBlock
 380              	.LBE4:
 262:RtosV611/Source/portable/MemMang/heap_2.c **** 			xFreeBytesRemaining += pxLink->xBlockSize;
 381              		.loc 1 262 0 is_stmt 1 discriminator 4
 382 0050 FB68     		ldr	r3, [r7, #12]	@ tmp135, pxLink
 383 0052 5A68     		ldr	r2, [r3, #4]	@ _20, pxLink_10->xBlockSize
 384 0054 064B     		ldr	r3, .L19+4	@ tmp136,
 385 0056 1B68     		ldr	r3, [r3]	@ xFreeBytesRemaining.6_21, xFreeBytesRemaining
 386 0058 1344     		add	r3, r3, r2	@ _22, _20
 387 005a 054A     		ldr	r2, .L19+4	@ tmp137,
 388 005c 1360     		str	r3, [r2]	@ _22, xFreeBytesRemaining
 263:RtosV611/Source/portable/MemMang/heap_2.c **** 		}
 264:RtosV611/Source/portable/MemMang/heap_2.c **** 		xTaskResumeAll();
 389              		.loc 1 264 0 discriminator 4
 390 005e FFF7FEFF 		bl	xTaskResumeAll	@
 391              	.L18:
 265:RtosV611/Source/portable/MemMang/heap_2.c **** 	}
 266:RtosV611/Source/portable/MemMang/heap_2.c **** }
 392              		.loc 1 266 0
 393 0062 00BF     		nop
 394 0064 1837     		adds	r7, r7, #24	@,,
 395              		.cfi_def_cfa_offset 8
 396 0066 BD46     		mov	sp, r7	@,
 397              		.cfi_def_cfa_register 13
 398              		@ sp needed	@
 399 0068 80BD     		pop	{r7, pc}	@
 400              	.L20:
 401 006a 00BF     		.align	2
 402              	.L19:
 403 006c 00000000 		.word	xStart
 404 0070 00000000 		.word	xFreeBytesRemaining
 405              		.cfi_endproc
 406              	.LFE1:
 407              		.size	vPortFree, .-vPortFree
 408              		.section	.text.xPortGetFreeHeapSize,"ax",%progbits
 409              		.align	1
 410              		.global	xPortGetFreeHeapSize
ARM GAS  C:\Users\MICHA~1\AppData\Local\Temp\ccXsxiX7.s 			page 13


 411              		.syntax unified
 412              		.thumb
 413              		.thumb_func
 414              		.fpu softvfp
 415              		.type	xPortGetFreeHeapSize, %function
 416              	xPortGetFreeHeapSize:
 417              	.LFB2:
 267:RtosV611/Source/portable/MemMang/heap_2.c **** /*-----------------------------------------------------------*/
 268:RtosV611/Source/portable/MemMang/heap_2.c **** 
 269:RtosV611/Source/portable/MemMang/heap_2.c **** size_t xPortGetFreeHeapSize( void )
 270:RtosV611/Source/portable/MemMang/heap_2.c **** {
 418              		.loc 1 270 0
 419              		.cfi_startproc
 420              		@ args = 0, pretend = 0, frame = 0
 421              		@ frame_needed = 1, uses_anonymous_args = 0
 422              		@ link register save eliminated.
 423 0000 80B4     		push	{r7}	@
 424              		.cfi_def_cfa_offset 4
 425              		.cfi_offset 7, -4
 426 0002 00AF     		add	r7, sp, #0	@,,
 427              		.cfi_def_cfa_register 7
 271:RtosV611/Source/portable/MemMang/heap_2.c **** 	return xFreeBytesRemaining;
 428              		.loc 1 271 0
 429 0004 024B     		ldr	r3, .L23	@ tmp112,
 430 0006 1B68     		ldr	r3, [r3]	@ _2, xFreeBytesRemaining
 272:RtosV611/Source/portable/MemMang/heap_2.c **** }
 431              		.loc 1 272 0
 432 0008 1846     		mov	r0, r3	@, <retval>
 433 000a BD46     		mov	sp, r7	@,
 434              		.cfi_def_cfa_register 13
 435              		@ sp needed	@
 436 000c 80BC     		pop	{r7}	@
 437              		.cfi_restore 7
 438              		.cfi_def_cfa_offset 0
 439 000e 7047     		bx	lr	@
 440              	.L24:
 441              		.align	2
 442              	.L23:
 443 0010 00000000 		.word	xFreeBytesRemaining
 444              		.cfi_endproc
 445              	.LFE2:
 446              		.size	xPortGetFreeHeapSize, .-xPortGetFreeHeapSize
 447              		.section	.text.vPortInitialiseBlocks,"ax",%progbits
 448              		.align	1
 449              		.global	vPortInitialiseBlocks
 450              		.syntax unified
 451              		.thumb
 452              		.thumb_func
 453              		.fpu softvfp
 454              		.type	vPortInitialiseBlocks, %function
 455              	vPortInitialiseBlocks:
 456              	.LFB3:
 273:RtosV611/Source/portable/MemMang/heap_2.c **** /*-----------------------------------------------------------*/
 274:RtosV611/Source/portable/MemMang/heap_2.c **** 
 275:RtosV611/Source/portable/MemMang/heap_2.c **** void vPortInitialiseBlocks( void )
 276:RtosV611/Source/portable/MemMang/heap_2.c **** {
 457              		.loc 1 276 0
ARM GAS  C:\Users\MICHA~1\AppData\Local\Temp\ccXsxiX7.s 			page 14


 458              		.cfi_startproc
 459              		@ args = 0, pretend = 0, frame = 0
 460              		@ frame_needed = 1, uses_anonymous_args = 0
 461              		@ link register save eliminated.
 462 0000 80B4     		push	{r7}	@
 463              		.cfi_def_cfa_offset 4
 464              		.cfi_offset 7, -4
 465 0002 00AF     		add	r7, sp, #0	@,,
 466              		.cfi_def_cfa_register 7
 277:RtosV611/Source/portable/MemMang/heap_2.c **** 	/* This just exists to keep the linker quiet. */
 278:RtosV611/Source/portable/MemMang/heap_2.c **** }
 467              		.loc 1 278 0
 468 0004 00BF     		nop
 469 0006 BD46     		mov	sp, r7	@,
 470              		.cfi_def_cfa_register 13
 471              		@ sp needed	@
 472 0008 80BC     		pop	{r7}	@
 473              		.cfi_restore 7
 474              		.cfi_def_cfa_offset 0
 475 000a 7047     		bx	lr	@
 476              		.cfi_endproc
 477              	.LFE3:
 478              		.size	vPortInitialiseBlocks, .-vPortInitialiseBlocks
 479              		.section	.bss.xHeapHasBeenInitialised.4878,"aw",%nobits
 480              		.align	2
 481              		.type	xHeapHasBeenInitialised.4878, %object
 482              		.size	xHeapHasBeenInitialised.4878, 4
 483              	xHeapHasBeenInitialised.4878:
 484 0000 00000000 		.space	4
 485              		.text
 486              	.Letext0:
 487              		.file 2 "c:\\stm32\\arm-none-eabi-gcc-6.3.0-170107\\lib\\gcc\\arm-none-eabi\\6.3.0\\include\\stdde
 488              		.file 3 "c:\\stm32\\arm-none-eabi-gcc-6.3.0-170107\\arm-none-eabi\\include\\sys\\lock.h"
 489              		.file 4 "c:\\stm32\\arm-none-eabi-gcc-6.3.0-170107\\arm-none-eabi\\include\\sys\\_types.h"
 490              		.file 5 "c:\\stm32\\arm-none-eabi-gcc-6.3.0-170107\\arm-none-eabi\\include\\sys\\reent.h"
 491              		.file 6 "c:\\stm32\\arm-none-eabi-gcc-6.3.0-170107\\arm-none-eabi\\include\\stdlib.h"
 492              		.file 7 "RtosV611/FreeRTOSConfig.h"