ARM GAS  C:\Users\MICHA~1\AppData\Local\Temp\cc6Moty3.s 			page 1


   1              		.cpu cortex-m3
   2              		.eabi_attribute 20, 1	@ Tag_ABI_FP_denormal
   3              		.eabi_attribute 21, 1	@ Tag_ABI_FP_exceptions
   4              		.eabi_attribute 23, 3	@ Tag_ABI_FP_number_model
   5              		.eabi_attribute 24, 1	@ Tag_ABI_align8_needed
   6              		.eabi_attribute 25, 1	@ Tag_ABI_align8_preserved
   7              		.eabi_attribute 26, 1	@ Tag_ABI_enum_size
   8              		.eabi_attribute 30, 6	@ Tag_ABI_optimization_goals
   9              		.eabi_attribute 34, 1	@ Tag_CPU_unaligned_access
  10              		.eabi_attribute 18, 4	@ Tag_ABI_PCS_wchar_t
  11              		.file	"main.c"
  12              	@ GNU C89 (bleeding-edge-toolchain) version 6.3.0 (arm-none-eabi)
  13              	@	compiled by GNU C version 6.2.1 20160830, GMP version 6.1.2, MPFR version 3.1.5, MPC version 1.0.
  14              	@ GGC heuristics: --param ggc-min-expand=100 --param ggc-min-heapsize=131072
  15              	@ options passed:  -I . -I Setup -I RtosV611 -I RtosV611/Source
  16              	@ -I RtosV611/Source/include -I RtosV611/Source/portable/GCC/ARM_CM3
  17              	@ -I RtosV611/Source/portable/MemMang -I RtosV611/Common/include
  18              	@ -imultilib armv7-m
  19              	@ -iprefix c:\stm32\arm-none-eabi-gcc-6.3.0-170107\bin\../lib/gcc/arm-none-eabi/6.3.0/
  20              	@ -isysroot c:\stm32\arm-none-eabi-gcc-6.3.0-170107\bin\../arm-none-eabi
  21              	@ -MD out/main.d -MF out/main.d -MP -MQ out/main.o -D__USES_INITFINI__
  22              	@ main.c -mcpu=cortex-m3 -mthumb -auxbase-strip out/main.o -g -ggdb3 -O0
  23              	@ -Wall -Wstrict-prototypes -Wextra -std=gnu90 -ffunction-sections
  24              	@ -fdata-sections -fverbose-asm
  25              	@ options enabled:  -faggressive-loop-optimizations -fauto-inc-dec
  26              	@ -fchkp-check-incomplete-type -fchkp-check-read -fchkp-check-write
  27              	@ -fchkp-instrument-calls -fchkp-narrow-bounds -fchkp-optimize
  28              	@ -fchkp-store-bounds -fchkp-use-static-bounds
  29              	@ -fchkp-use-static-const-bounds -fchkp-use-wrappers -fcommon
  30              	@ -fdata-sections -fdelete-null-pointer-checks -fdwarf2-cfi-asm
  31              	@ -fearly-inlining -feliminate-unused-debug-types -ffunction-cse
  32              	@ -ffunction-sections -fgcse-lm -fgnu-runtime -fgnu-unique -fident
  33              	@ -finline-atomics -fira-hoist-pressure -fira-share-save-slots
  34              	@ -fira-share-spill-slots -fivopts -fkeep-static-consts
  35              	@ -fleading-underscore -flifetime-dse -flto-odr-type-merging -fmath-errno
  36              	@ -fmerge-debug-strings -fpeephole -fplt -fprefetch-loop-arrays
  37              	@ -freg-struct-return -fsched-critical-path-heuristic
  38              	@ -fsched-dep-count-heuristic -fsched-group-heuristic -fsched-interblock
  39              	@ -fsched-last-insn-heuristic -fsched-rank-heuristic -fsched-spec
  40              	@ -fsched-spec-insn-heuristic -fsched-stalled-insns-dep
  41              	@ -fsemantic-interposition -fshow-column -fsigned-zeros
  42              	@ -fsplit-ivs-in-unroller -fssa-backprop -fstdarg-opt
  43              	@ -fstrict-volatile-bitfields -fsync-libcalls -ftrapping-math -ftree-cselim
  44              	@ -ftree-forwprop -ftree-loop-if-convert -ftree-loop-im -ftree-loop-ivcanon
  45              	@ -ftree-loop-optimize -ftree-parallelize-loops= -ftree-phiprop
  46              	@ -ftree-reassoc -ftree-scev-cprop -funit-at-a-time -fverbose-asm
  47              	@ -fzero-initialized-in-bss -masm-syntax-unified -mfix-cortex-m3-ldrd
  48              	@ -mlittle-endian -mpic-data-is-text-relative -msched-prolog -mthumb
  49              	@ -munaligned-access -mvectorize-with-neon-quad
  50              	
  51              		.text
  52              	.Ltext0:
  53              		.cfi_sections	.debug_frame
  54              		.comm	globalQueueHandle,4,4
  55              		.comm	ulHighFrequencyTimerTicks,4,4
  56              		.section	.rodata
  57              		.align	2
ARM GAS  C:\Users\MICHA~1\AppData\Local\Temp\cc6Moty3.s 			page 2


  58              	.LC0:
  59 0000 7461736B 		.ascii	"task1\000"
  59      3100
  60              		.section	.text.main,"ax",%progbits
  61              		.align	1
  62              		.global	main
  63              		.syntax unified
  64              		.thumb
  65              		.thumb_func
  66              		.fpu softvfp
  67              		.type	main, %function
  68              	main:
  69              	.LFB21:
  70              		.file 1 "main.c"
   1:main.c        **** 
   2:main.c        **** 
   3:main.c        **** /* Standard includes. */
   4:main.c        **** #include <stdio.h>
   5:main.c        **** #include <string.h>
   6:main.c        **** /* Scheduler includes. */
   7:main.c        **** #include "FreeRTOS.h"
   8:main.c        **** #include "task.h"
   9:main.c        **** #include "queue.h"
  10:main.c        **** #include "semphr.h"
  11:main.c        **** 
  12:main.c        **** /* Library includes. */
  13:main.c        **** #include "stm32f10x.h"
  14:main.c        **** #include "gpio.h"
  15:main.c        **** #include "Tasks/Task1/mainTask1.h"
  16:main.c        **** volatile unsigned long ulHighFrequencyTimerTicks;
  17:main.c        **** /*-----------------------------------------------------------*/
  18:main.c        **** 
  19:main.c        **** //extern void SystemInit(void);
  20:main.c        **** //extern void vTask1( void *pvParameters  );
  21:main.c        **** //extern void vTask2( void *pvParameters  );
  22:main.c        **** /**
  23:main.c        ****  * Configures the timers and interrupts for the fast interrupt test as
  24:main.c        ****  * described at the top of this file.
  25:main.c        ****  */
  26:main.c        **** 
  27:main.c        **** 
  28:main.c        **** 
  29:main.c        **** 
  30:main.c        **** int main( void )
  31:main.c        **** {
  71              		.loc 1 31 0
  72              		.cfi_startproc
  73              		@ args = 0, pretend = 0, frame = 0
  74              		@ frame_needed = 1, uses_anonymous_args = 0
  75 0000 80B5     		push	{r7, lr}	@
  76              		.cfi_def_cfa_offset 8
  77              		.cfi_offset 7, -8
  78              		.cfi_offset 14, -4
  79 0002 84B0     		sub	sp, sp, #16	@,,
  80              		.cfi_def_cfa_offset 24
  81 0004 04AF     		add	r7, sp, #16	@,,
  82              		.cfi_def_cfa 7, 8
ARM GAS  C:\Users\MICHA~1\AppData\Local\Temp\cc6Moty3.s 			page 3


  32:main.c        **** 
  33:main.c        **** 
  34:main.c        **** 	 //SystemInit();
  35:main.c        **** 	#ifdef RAM_FLASH
  36:main.c        **** 		SCB->VTOR = ((uint32_t)0x20000000);   // ram
  37:main.c        **** 	 #else
  38:main.c        **** 		SCB->VTOR = ((uint32_t)0x08000000);   // flash
  83              		.loc 1 38 0
  84 0006 1E4B     		ldr	r3, .L3	@ _1,
  85 0008 4FF00062 		mov	r2, #134217728	@ tmp115,
  86 000c 9A60     		str	r2, [r3, #8]	@ tmp115, _1->VTOR
  39:main.c        **** 	 #endif
  40:main.c        **** 
  41:main.c        **** 	RCC->APB2ENR = RCC_APB2ENR_IOPAEN | RCC_APB2ENR_IOPBEN | RCC_APB2ENR_IOPCEN |
  87              		.loc 1 41 0
  88 000e 1D4B     		ldr	r3, .L3+4	@ _4,
  89 0010 1D22     		movs	r2, #29	@ tmp116,
  90 0012 9A61     		str	r2, [r3, #24]	@ tmp116, _4->APB2ENR
  42:main.c        **** 							 RCC_APB2ENR_AFIOEN;
  43:main.c        **** 
  44:main.c        **** 	gpio_pin_cfg(GPIOA, 5, GPIO_CRx_MODE_CNF_OUT_PP_2M_value);
  91              		.loc 1 44 0
  92 0014 0222     		movs	r2, #2	@,
  93 0016 0521     		movs	r1, #5	@,
  94 0018 1B48     		ldr	r0, .L3+8	@,
  95 001a FFF7FEFF 		bl	gpio_pin_cfg	@
  45:main.c        **** 	gpio_pin_cfg(GPIOA, 0, GPIO_CRx_MODE_CNF_OUT_PP_2M_value);
  96              		.loc 1 45 0
  97 001e 0222     		movs	r2, #2	@,
  98 0020 0021     		movs	r1, #0	@,
  99 0022 1948     		ldr	r0, .L3+8	@,
 100 0024 FFF7FEFF 		bl	gpio_pin_cfg	@
  46:main.c        **** 
  47:main.c        **** 	globalQueueHandle = xQueueCreate(3, sizeof(int));
 101              		.loc 1 47 0
 102 0028 0421     		movs	r1, #4	@,
 103 002a 0320     		movs	r0, #3	@,
 104 002c FFF7FEFF 		bl	xQueueCreate	@
 105 0030 0246     		mov	r2, r0	@ _9,
 106 0032 164B     		ldr	r3, .L3+12	@ tmp117,
 107 0034 1A60     		str	r2, [r3]	@ _9, globalQueueHandle
  48:main.c        **** 
  49:main.c        ****  	xTaskCreate( vTask2, ( signed portCHAR * ) "task1", configMINIMAL_STACK_SIZE*2,
 108              		.loc 1 49 0
 109 0036 0023     		movs	r3, #0	@ tmp118,
 110 0038 0393     		str	r3, [sp, #12]	@ tmp118,
 111 003a 0023     		movs	r3, #0	@ tmp119,
 112 003c 0293     		str	r3, [sp, #8]	@ tmp119,
 113 003e 0023     		movs	r3, #0	@ tmp120,
 114 0040 0193     		str	r3, [sp, #4]	@ tmp120,
 115 0042 0123     		movs	r3, #1	@ tmp121,
 116 0044 0093     		str	r3, [sp]	@ tmp121,
 117 0046 0023     		movs	r3, #0	@,
 118 0048 4FF48072 		mov	r2, #256	@,
 119 004c 1049     		ldr	r1, .L3+16	@,
 120 004e 1148     		ldr	r0, .L3+20	@,
 121 0050 FFF7FEFF 		bl	xTaskGenericCreate	@
ARM GAS  C:\Users\MICHA~1\AppData\Local\Temp\cc6Moty3.s 			page 4


  50:main.c        ****  							NULL, tskIDLE_PRIORITY +1, NULL );
  51:main.c        **** 
  52:main.c        ****  	xTaskCreate( vTask1, ( signed portCHAR * ) "task1", configMINIMAL_STACK_SIZE*2,
 122              		.loc 1 52 0
 123 0054 0023     		movs	r3, #0	@ tmp122,
 124 0056 0393     		str	r3, [sp, #12]	@ tmp122,
 125 0058 0023     		movs	r3, #0	@ tmp123,
 126 005a 0293     		str	r3, [sp, #8]	@ tmp123,
 127 005c 0023     		movs	r3, #0	@ tmp124,
 128 005e 0193     		str	r3, [sp, #4]	@ tmp124,
 129 0060 0123     		movs	r3, #1	@ tmp125,
 130 0062 0093     		str	r3, [sp]	@ tmp125,
 131 0064 0023     		movs	r3, #0	@,
 132 0066 4FF48072 		mov	r2, #256	@,
 133 006a 0949     		ldr	r1, .L3+16	@,
 134 006c 0A48     		ldr	r0, .L3+24	@,
 135 006e FFF7FEFF 		bl	xTaskGenericCreate	@
  53:main.c        ****  	 							NULL, tskIDLE_PRIORITY +1, NULL );
  54:main.c        **** 
  55:main.c        **** 
  56:main.c        **** 	/* Start the scheduler. */
  57:main.c        **** 	vTaskStartScheduler();
 136              		.loc 1 57 0
 137 0072 FFF7FEFF 		bl	vTaskStartScheduler	@
  58:main.c        **** 
  59:main.c        **** 
  60:main.c        **** 
  61:main.c        ****     /* Will only get here if there was insufficient memory to create the idle
  62:main.c        ****     task. */
  63:main.c        **** 	return 0;
 138              		.loc 1 63 0
 139 0076 0023     		movs	r3, #0	@ _14,
  64:main.c        **** }
 140              		.loc 1 64 0
 141 0078 1846     		mov	r0, r3	@, <retval>
 142 007a BD46     		mov	sp, r7	@,
 143              		.cfi_def_cfa_register 13
 144              		@ sp needed	@
 145 007c 80BD     		pop	{r7, pc}	@
 146              	.L4:
 147 007e 00BF     		.align	2
 148              	.L3:
 149 0080 00ED00E0 		.word	-536810240
 150 0084 00100240 		.word	1073876992
 151 0088 00080140 		.word	1073809408
 152 008c 00000000 		.word	globalQueueHandle
 153 0090 00000000 		.word	.LC0
 154 0094 00000000 		.word	vTask2
 155 0098 00000000 		.word	vTask1
 156              		.cfi_endproc
 157              	.LFE21:
 158              		.size	main, .-main
 159              		.section	.text.vApplicationStackOverflowHook,"ax",%progbits
 160              		.align	1
 161              		.global	vApplicationStackOverflowHook
 162              		.syntax unified
 163              		.thumb
ARM GAS  C:\Users\MICHA~1\AppData\Local\Temp\cc6Moty3.s 			page 5


 164              		.thumb_func
 165              		.fpu softvfp
 166              		.type	vApplicationStackOverflowHook, %function
 167              	vApplicationStackOverflowHook:
 168              	.LFB22:
  65:main.c        **** 
  66:main.c        **** 
  67:main.c        **** 
  68:main.c        **** 
  69:main.c        **** 
  70:main.c        **** void vApplicationStackOverflowHook( xTaskHandle *pxTask, signed portCHAR *pcTaskName )
  71:main.c        **** {
 169              		.loc 1 71 0
 170              		.cfi_startproc
 171              		@ args = 0, pretend = 0, frame = 8
 172              		@ frame_needed = 1, uses_anonymous_args = 0
 173              		@ link register save eliminated.
 174 0000 80B4     		push	{r7}	@
 175              		.cfi_def_cfa_offset 4
 176              		.cfi_offset 7, -4
 177 0002 83B0     		sub	sp, sp, #12	@,,
 178              		.cfi_def_cfa_offset 16
 179 0004 00AF     		add	r7, sp, #0	@,,
 180              		.cfi_def_cfa_register 7
 181 0006 7860     		str	r0, [r7, #4]	@ pxTask, pxTask
 182 0008 3960     		str	r1, [r7]	@ pcTaskName, pcTaskName
 183              	.L6:
  72:main.c        **** 	for( ;; );
 184              		.loc 1 72 0 discriminator 1
 185 000a FEE7     		b	.L6	@
 186              		.cfi_endproc
 187              	.LFE22:
 188              		.size	vApplicationStackOverflowHook, .-vApplicationStackOverflowHook
 189              		.text
 190              	.Letext0:
 191              		.file 2 "c:\\stm32\\arm-none-eabi-gcc-6.3.0-170107\\arm-none-eabi\\include\\machine\\_default_type
 192              		.file 3 "c:\\stm32\\arm-none-eabi-gcc-6.3.0-170107\\arm-none-eabi\\include\\sys\\lock.h"
 193              		.file 4 "c:\\stm32\\arm-none-eabi-gcc-6.3.0-170107\\arm-none-eabi\\include\\sys\\_types.h"
 194              		.file 5 "c:\\stm32\\arm-none-eabi-gcc-6.3.0-170107\\lib\\gcc\\arm-none-eabi\\6.3.0\\include\\stdde
 195              		.file 6 "c:\\stm32\\arm-none-eabi-gcc-6.3.0-170107\\arm-none-eabi\\include\\sys\\reent.h"
 196              		.file 7 "c:\\stm32\\arm-none-eabi-gcc-6.3.0-170107\\arm-none-eabi\\include\\sys\\_stdint.h"
 197              		.file 8 "RtosV611/FreeRTOSConfig.h"
 198              		.file 9 "RtosV611/Source/include/task.h"
 199              		.file 10 "RtosV611/Source/include/queue.h"
 200              		.file 11 "Setup/core_cm3.h"
 201              		.file 12 "Setup/stm32f10x.h"
 202              		.file 13 "Tasks/Task1/mainTask1.h"