ARM GAS  C:\Users\MICHA~1\AppData\Local\Temp\ccX17zZY.s 			page 1


   1              		.cpu cortex-m3
   2              		.eabi_attribute 20, 1	@ Tag_ABI_FP_denormal
   3              		.eabi_attribute 21, 1	@ Tag_ABI_FP_exceptions
   4              		.eabi_attribute 23, 3	@ Tag_ABI_FP_number_model
   5              		.eabi_attribute 24, 1	@ Tag_ABI_align8_needed
   6              		.eabi_attribute 25, 1	@ Tag_ABI_align8_preserved
   7              		.eabi_attribute 26, 1	@ Tag_ABI_enum_size
   8              		.eabi_attribute 30, 6	@ Tag_ABI_optimization_goals
   9              		.eabi_attribute 34, 1	@ Tag_CPU_unaligned_access
  10              		.eabi_attribute 18, 4	@ Tag_ABI_PCS_wchar_t
  11              		.file	"mainTask1.c"
  12              	@ GNU C89 (bleeding-edge-toolchain) version 6.3.0 (arm-none-eabi)
  13              	@	compiled by GNU C version 6.2.1 20160830, GMP version 6.1.2, MPFR version 3.1.5, MPC version 1.0.
  14              	@ GGC heuristics: --param ggc-min-expand=100 --param ggc-min-heapsize=131072
  15              	@ options passed:  -I . -I Setup -I RtosV611 -I RtosV611/Source
  16              	@ -I RtosV611/Source/include -I RtosV611/Source/portable/GCC/ARM_CM3
  17              	@ -I RtosV611/Source/portable/MemMang -I RtosV611/Common/include
  18              	@ -imultilib armv7-m
  19              	@ -iprefix c:\stm32\arm-none-eabi-gcc-6.3.0-170107\bin\../lib/gcc/arm-none-eabi/6.3.0/
  20              	@ -isysroot c:\stm32\arm-none-eabi-gcc-6.3.0-170107\bin\../arm-none-eabi
  21              	@ -MD out/mainTask1.d -MF out/mainTask1.d -MP -MQ out/mainTask1.o
  22              	@ -D__USES_INITFINI__ Tasks\Task1/mainTask1.c -mcpu=cortex-m3 -mthumb
  23              	@ -auxbase-strip out/mainTask1.o -g -ggdb3 -O0 -Wall -Wstrict-prototypes
  24              	@ -Wextra -std=gnu90 -ffunction-sections -fdata-sections -fverbose-asm
  25              	@ options enabled:  -faggressive-loop-optimizations -fauto-inc-dec
  26              	@ -fchkp-check-incomplete-type -fchkp-check-read -fchkp-check-write
  27              	@ -fchkp-instrument-calls -fchkp-narrow-bounds -fchkp-optimize
  28              	@ -fchkp-store-bounds -fchkp-use-static-bounds
  29              	@ -fchkp-use-static-const-bounds -fchkp-use-wrappers -fcommon
  30              	@ -fdata-sections -fdelete-null-pointer-checks -fdwarf2-cfi-asm
  31              	@ -fearly-inlining -feliminate-unused-debug-types -ffunction-cse
  32              	@ -ffunction-sections -fgcse-lm -fgnu-runtime -fgnu-unique -fident
  33              	@ -finline-atomics -fira-hoist-pressure -fira-share-save-slots
  34              	@ -fira-share-spill-slots -fivopts -fkeep-static-consts
  35              	@ -fleading-underscore -flifetime-dse -flto-odr-type-merging -fmath-errno
  36              	@ -fmerge-debug-strings -fpeephole -fplt -fprefetch-loop-arrays
  37              	@ -freg-struct-return -fsched-critical-path-heuristic
  38              	@ -fsched-dep-count-heuristic -fsched-group-heuristic -fsched-interblock
  39              	@ -fsched-last-insn-heuristic -fsched-rank-heuristic -fsched-spec
  40              	@ -fsched-spec-insn-heuristic -fsched-stalled-insns-dep
  41              	@ -fsemantic-interposition -fshow-column -fsigned-zeros
  42              	@ -fsplit-ivs-in-unroller -fssa-backprop -fstdarg-opt
  43              	@ -fstrict-volatile-bitfields -fsync-libcalls -ftrapping-math -ftree-cselim
  44              	@ -ftree-forwprop -ftree-loop-if-convert -ftree-loop-im -ftree-loop-ivcanon
  45              	@ -ftree-loop-optimize -ftree-parallelize-loops= -ftree-phiprop
  46              	@ -ftree-reassoc -ftree-scev-cprop -funit-at-a-time -fverbose-asm
  47              	@ -fzero-initialized-in-bss -masm-syntax-unified -mfix-cortex-m3-ldrd
  48              	@ -mlittle-endian -mpic-data-is-text-relative -msched-prolog -mthumb
  49              	@ -munaligned-access -mvectorize-with-neon-quad
  50              	
  51              		.text
  52              	.Ltext0:
  53              		.cfi_sections	.debug_frame
  54              		.comm	globalQueueHandle,4,4
  55              		.section	.text.vTask1,"ax",%progbits
  56              		.align	1
  57              		.global	vTask1
ARM GAS  C:\Users\MICHA~1\AppData\Local\Temp\ccX17zZY.s 			page 2


  58              		.syntax unified
  59              		.thumb
  60              		.thumb_func
  61              		.fpu softvfp
  62              		.type	vTask1, %function
  63              	vTask1:
  64              	.LFB20:
  65              		.file 1 "Tasks\\Task1/mainTask1.c"
   1:Tasks\Task1/mainTask1.c **** 
   2:Tasks\Task1/mainTask1.c **** 
   3:Tasks\Task1/mainTask1.c **** 
   4:Tasks\Task1/mainTask1.c **** 
   5:Tasks\Task1/mainTask1.c **** 
   6:Tasks\Task1/mainTask1.c **** #include "mainTask1.h"
   7:Tasks\Task1/mainTask1.c **** 
   8:Tasks\Task1/mainTask1.c **** 
   9:Tasks\Task1/mainTask1.c **** 
  10:Tasks\Task1/mainTask1.c **** 
  11:Tasks\Task1/mainTask1.c **** 
  12:Tasks\Task1/mainTask1.c **** 
  13:Tasks\Task1/mainTask1.c **** void vTask1( void *pvParameters  )
  14:Tasks\Task1/mainTask1.c **** {
  66              		.loc 1 14 0
  67              		.cfi_startproc
  68              		@ args = 0, pretend = 0, frame = 16
  69              		@ frame_needed = 1, uses_anonymous_args = 0
  70 0000 80B5     		push	{r7, lr}	@
  71              		.cfi_def_cfa_offset 8
  72              		.cfi_offset 7, -8
  73              		.cfi_offset 14, -4
  74 0002 84B0     		sub	sp, sp, #16	@,,
  75              		.cfi_def_cfa_offset 24
  76 0004 00AF     		add	r7, sp, #0	@,,
  77              		.cfi_def_cfa_register 7
  78 0006 7860     		str	r0, [r7, #4]	@ pvParameters, pvParameters
  79              	.L3:
  15:Tasks\Task1/mainTask1.c **** 	(void )pvParameters;
  16:Tasks\Task1/mainTask1.c **** 
  17:Tasks\Task1/mainTask1.c **** 	int rxVariable;
  18:Tasks\Task1/mainTask1.c **** 
  19:Tasks\Task1/mainTask1.c **** 	for( ;; )
  20:Tasks\Task1/mainTask1.c **** 	{
  21:Tasks\Task1/mainTask1.c **** 
  22:Tasks\Task1/mainTask1.c ****     	//vTaskDelay(10);
  23:Tasks\Task1/mainTask1.c **** 
  24:Tasks\Task1/mainTask1.c ****     	if(xQueueReceive(globalQueueHandle,&rxVariable,1000))
  80              		.loc 1 24 0
  81 0008 094B     		ldr	r3, .L4	@ tmp116,
  82 000a 1868     		ldr	r0, [r3]	@ globalQueueHandle.0_4, globalQueueHandle
  83 000c 07F10C01 		add	r1, r7, #12	@ tmp117,,
  84 0010 0023     		movs	r3, #0	@,
  85 0012 4FF47A72 		mov	r2, #1000	@,
  86 0016 FFF7FEFF 		bl	xQueueGenericReceive	@
  87 001a 0346     		mov	r3, r0	@ _6,
  88 001c 002B     		cmp	r3, #0	@ _6,
  89 001e F3D0     		beq	.L3	@,
  25:Tasks\Task1/mainTask1.c ****     	{
ARM GAS  C:\Users\MICHA~1\AppData\Local\Temp\ccX17zZY.s 			page 3


  26:Tasks\Task1/mainTask1.c ****     		GPIOA->ODR ^= (1<<0);
  90              		.loc 1 26 0
  91 0020 044A     		ldr	r2, .L4+4	@ _7,
  92 0022 044B     		ldr	r3, .L4+4	@ _8,
  93 0024 DB68     		ldr	r3, [r3, #12]	@ _9, _8->ODR
  94 0026 83F00103 		eor	r3, r3, #1	@ _10, _9,
  95 002a D360     		str	r3, [r2, #12]	@ _10, _7->ODR
  24:Tasks\Task1/mainTask1.c ****     	{
  96              		.loc 1 24 0
  97 002c ECE7     		b	.L3	@
  98              	.L5:
  99 002e 00BF     		.align	2
 100              	.L4:
 101 0030 00000000 		.word	globalQueueHandle
 102 0034 00080140 		.word	1073809408
 103              		.cfi_endproc
 104              	.LFE20:
 105              		.size	vTask1, .-vTask1
 106              		.section	.text.vTask2,"ax",%progbits
 107              		.align	1
 108              		.global	vTask2
 109              		.syntax unified
 110              		.thumb
 111              		.thumb_func
 112              		.fpu softvfp
 113              		.type	vTask2, %function
 114              	vTask2:
 115              	.LFB21:
  27:Tasks\Task1/mainTask1.c ****     	}
  28:Tasks\Task1/mainTask1.c **** 
  29:Tasks\Task1/mainTask1.c **** 
  30:Tasks\Task1/mainTask1.c **** 	}
  31:Tasks\Task1/mainTask1.c **** }
  32:Tasks\Task1/mainTask1.c **** 
  33:Tasks\Task1/mainTask1.c **** void vTask2( void *pvParameters  )
  34:Tasks\Task1/mainTask1.c **** {
 116              		.loc 1 34 0
 117              		.cfi_startproc
 118              		@ args = 0, pretend = 0, frame = 16
 119              		@ frame_needed = 1, uses_anonymous_args = 0
 120 0000 80B5     		push	{r7, lr}	@
 121              		.cfi_def_cfa_offset 8
 122              		.cfi_offset 7, -8
 123              		.cfi_offset 14, -4
 124 0002 84B0     		sub	sp, sp, #16	@,,
 125              		.cfi_def_cfa_offset 24
 126 0004 00AF     		add	r7, sp, #0	@,,
 127              		.cfi_def_cfa_register 7
 128 0006 7860     		str	r0, [r7, #4]	@ pvParameters, pvParameters
 129              	.L7:
  35:Tasks\Task1/mainTask1.c **** 
  36:Tasks\Task1/mainTask1.c **** 	int i;
  37:Tasks\Task1/mainTask1.c **** 
  38:Tasks\Task1/mainTask1.c **** 	(void )pvParameters;
  39:Tasks\Task1/mainTask1.c **** 
  40:Tasks\Task1/mainTask1.c **** 	for( ;; )
  41:Tasks\Task1/mainTask1.c **** 	{
ARM GAS  C:\Users\MICHA~1\AppData\Local\Temp\ccX17zZY.s 			page 4


  42:Tasks\Task1/mainTask1.c **** 
  43:Tasks\Task1/mainTask1.c ****     	vTaskDelay(100);
 130              		.loc 1 43 0 discriminator 1
 131 0008 6420     		movs	r0, #100	@,
 132 000a FFF7FEFF 		bl	vTaskDelay	@
  44:Tasks\Task1/mainTask1.c ****     	GPIOA->ODR ^= (1<<5);
 133              		.loc 1 44 0 discriminator 1
 134 000e 094A     		ldr	r2, .L8	@ _4,
 135 0010 084B     		ldr	r3, .L8	@ _5,
 136 0012 DB68     		ldr	r3, [r3, #12]	@ _6, _5->ODR
 137 0014 83F02003 		eor	r3, r3, #32	@ _7, _6,
 138 0018 D360     		str	r3, [r2, #12]	@ _7, _4->ODR
  45:Tasks\Task1/mainTask1.c ****     	i++;
 139              		.loc 1 45 0 discriminator 1
 140 001a FB68     		ldr	r3, [r7, #12]	@ i.1_9, i
 141 001c 0133     		adds	r3, r3, #1	@ i.2_10, i.1_9,
 142 001e FB60     		str	r3, [r7, #12]	@ i.2_10, i
  46:Tasks\Task1/mainTask1.c ****     	xQueueSend(globalQueueHandle,&i,200);
 143              		.loc 1 46 0 discriminator 1
 144 0020 054B     		ldr	r3, .L8+4	@ tmp117,
 145 0022 1868     		ldr	r0, [r3]	@ globalQueueHandle.3_12, globalQueueHandle
 146 0024 07F10C01 		add	r1, r7, #12	@ tmp118,,
 147 0028 0023     		movs	r3, #0	@,
 148 002a C822     		movs	r2, #200	@,
 149 002c FFF7FEFF 		bl	xQueueGenericSend	@
  43:Tasks\Task1/mainTask1.c ****     	GPIOA->ODR ^= (1<<5);
 150              		.loc 1 43 0 discriminator 1
 151 0030 EAE7     		b	.L7	@
 152              	.L9:
 153 0032 00BF     		.align	2
 154              	.L8:
 155 0034 00080140 		.word	1073809408
 156 0038 00000000 		.word	globalQueueHandle
 157              		.cfi_endproc
 158              	.LFE21:
 159              		.size	vTask2, .-vTask2
 160              		.text
 161              	.Letext0:
 162              		.file 2 "c:\\stm32\\arm-none-eabi-gcc-6.3.0-170107\\arm-none-eabi\\include\\machine\\_default_type
 163              		.file 3 "c:\\stm32\\arm-none-eabi-gcc-6.3.0-170107\\arm-none-eabi\\include\\sys\\_stdint.h"
 164              		.file 4 "RtosV611/FreeRTOSConfig.h"
 165              		.file 5 "Setup/core_cm3.h"
 166              		.file 6 "Setup/stm32f10x.h"
 167              		.file 7 "RtosV611/Source/include/queue.h"
 168              		.file 8 "Tasks\\Task1/mainTask1.h"